; ModuleID = 'b.cpp'
source_filename = "b.cpp"
target datalayout = "e-m:e-p270:32:32-p271:32:32-p272:64:64-i64:64-i128:128-f80:128-n8:16:32:64-S128"
target triple = "x86_64-pc-linux-gnu"

module asm ".globl _ZSt21ios_base_library_initv"

%union.pthread_mutex_t = type { %struct.__pthread_mutex_s }
%struct.__pthread_mutex_s = type { i32, i32, i32, i32, i32, i16, i16, %struct.__pthread_internal_list }
%struct.__pthread_internal_list = type { ptr, ptr }
%"class.std::basic_ostream" = type { ptr, %"class.std::basic_ios" }
%"class.std::basic_ios" = type { %"class.std::ios_base", ptr, i8, i8, ptr, ptr, ptr, ptr }
%"class.std::ios_base" = type { ptr, i64, i64, i32, i32, i32, ptr, %"struct.std::ios_base::_Words", [8 x %"struct.std::ios_base::_Words"], i32, ptr, %"class.std::locale" }
%"struct.std::ios_base::_Words" = type { ptr, i64 }
%"class.std::locale" = type { ptr }
%union.pthread_attr_t = type { i64, [48 x i8] }
%struct.thr_args = type { i16 }

@counter = dso_local global i64 0, align 8, !dbg !0
@mtx = dso_local global %union.pthread_mutex_t zeroinitializer, align 8, !dbg !23
@.str = private unnamed_addr constant [32 x i8] c"\0AThread can't be created : [%s]\00", align 1, !dbg !68
@.str.1 = private unnamed_addr constant [46 x i8] c"ERROR: return code from pthread_join() is %d\0A\00", align 1, !dbg !74
@_ZSt4cout = external global %"class.std::basic_ostream", align 8
@.str.2 = private unnamed_addr constant [16 x i8] c"Counter value: \00", align 1, !dbg !79
@.str.3 = private unnamed_addr constant [2 x i8] c"\0A\00", align 1, !dbg !84

; Function Attrs: mustprogress noinline optnone uwtable
define dso_local noundef ptr @_Z7thrBodyPv(ptr noundef %0) #0 !dbg !1082 {
  %2 = alloca ptr, align 8
  %3 = alloca ptr, align 8
  %4 = alloca i64, align 8
  store ptr %0, ptr %2, align 8
  call void @llvm.dbg.declare(metadata ptr %2, metadata !1086, metadata !DIExpression()), !dbg !1087
  call void @llvm.dbg.declare(metadata ptr %3, metadata !1088, metadata !DIExpression()), !dbg !1091
  %5 = load ptr, ptr %2, align 8, !dbg !1092
  store ptr %5, ptr %3, align 8, !dbg !1091
  call void @llvm.dbg.declare(metadata ptr %4, metadata !1093, metadata !DIExpression()), !dbg !1095
  store i64 0, ptr %4, align 8, !dbg !1095
  br label %6, !dbg !1096

6:                                                ; preds = %14, %1
  %7 = load i64, ptr %4, align 8, !dbg !1097
  %8 = icmp ult i64 %7, 100, !dbg !1099
  br i1 %8, label %9, label %17, !dbg !1100

9:                                                ; preds = %6
  %10 = call i32 @pthread_mutex_lock(ptr noundef @mtx) #8, !dbg !1101
  %11 = load i64, ptr @counter, align 8, !dbg !1103
  %12 = add i64 %11, 1, !dbg !1103
  store i64 %12, ptr @counter, align 8, !dbg !1103
  %13 = call i32 @pthread_mutex_unlock(ptr noundef @mtx) #8, !dbg !1104
  br label %14, !dbg !1105

14:                                               ; preds = %9
  %15 = load i64, ptr %4, align 8, !dbg !1106
  %16 = add i64 %15, 1, !dbg !1106
  store i64 %16, ptr %4, align 8, !dbg !1106
  br label %6, !dbg !1107, !llvm.loop !1108

17:                                               ; preds = %6
  call void @pthread_exit(ptr noundef null) #9, !dbg !1111
  unreachable, !dbg !1111
}

; Function Attrs: nocallback nofree nosync nounwind speculatable willreturn memory(none)
declare void @llvm.dbg.declare(metadata, metadata, metadata) #1

; Function Attrs: nounwind
declare i32 @pthread_mutex_lock(ptr noundef) #2

; Function Attrs: nounwind
declare i32 @pthread_mutex_unlock(ptr noundef) #2

; Function Attrs: noreturn
declare void @pthread_exit(ptr noundef) #3

; Function Attrs: mustprogress noinline norecurse optnone uwtable
define dso_local noundef i32 @main() #4 !dbg !1112 {
  %1 = alloca i32, align 4
  %2 = alloca i32, align 4
  %3 = alloca [2 x i64], align 16
  %4 = alloca ptr, align 8
  %5 = alloca %union.pthread_attr_t, align 8
  %6 = alloca [2 x %struct.thr_args], align 2
  %7 = alloca i32, align 4
  store i32 0, ptr %1, align 4
  call void @llvm.dbg.declare(metadata ptr %2, metadata !1113, metadata !DIExpression()), !dbg !1114
  call void @llvm.dbg.declare(metadata ptr %3, metadata !1115, metadata !DIExpression()), !dbg !1118
  call void @llvm.dbg.declare(metadata ptr %4, metadata !1119, metadata !DIExpression()), !dbg !1120
  call void @llvm.dbg.declare(metadata ptr %5, metadata !1121, metadata !DIExpression()), !dbg !1130
  %8 = call i32 @pthread_attr_init(ptr noundef %5) #8, !dbg !1131
  %9 = call i32 @pthread_attr_setdetachstate(ptr noundef %5, i32 noundef 0) #8, !dbg !1132
  call void @llvm.dbg.declare(metadata ptr %6, metadata !1133, metadata !DIExpression()), !dbg !1135
  call void @llvm.memset.p0.i64(ptr align 2 %6, i8 0, i64 4, i1 false), !dbg !1135
  call void @llvm.dbg.declare(metadata ptr %7, metadata !1136, metadata !DIExpression()), !dbg !1137
  store i32 0, ptr %7, align 4, !dbg !1137
  br label %10, !dbg !1138

10:                                               ; preds = %34, %0
  %11 = load i32, ptr %7, align 4, !dbg !1139
  %12 = icmp ult i32 %11, 2, !dbg !1140
  br i1 %12, label %13, label %37, !dbg !1138

13:                                               ; preds = %10
  %14 = load i32, ptr %7, align 4, !dbg !1141
  %15 = trunc i32 %14 to i16, !dbg !1141
  %16 = load i32, ptr %7, align 4, !dbg !1143
  %17 = zext i32 %16 to i64, !dbg !1144
  %18 = getelementptr inbounds [2 x %struct.thr_args], ptr %6, i64 0, i64 %17, !dbg !1144
  %19 = getelementptr inbounds %struct.thr_args, ptr %18, i32 0, i32 0, !dbg !1145
  store i16 %15, ptr %19, align 2, !dbg !1146
  %20 = load i32, ptr %7, align 4, !dbg !1147
  %21 = zext i32 %20 to i64, !dbg !1148
  %22 = getelementptr inbounds [2 x i64], ptr %3, i64 0, i64 %21, !dbg !1148
  %23 = getelementptr inbounds [2 x %struct.thr_args], ptr %6, i64 0, i64 0, !dbg !1149
  %24 = load i32, ptr %7, align 4, !dbg !1150
  %25 = zext i32 %24 to i64, !dbg !1151
  %26 = getelementptr inbounds %struct.thr_args, ptr %23, i64 %25, !dbg !1151
  %27 = call i32 @pthread_create(ptr noundef %22, ptr noundef %5, ptr noundef @_Z7thrBodyPv, ptr noundef %26) #8, !dbg !1152
  store i32 %27, ptr %2, align 4, !dbg !1153
  %28 = load i32, ptr %2, align 4, !dbg !1154
  %29 = icmp ne i32 %28, 0, !dbg !1156
  br i1 %29, label %30, label %34, !dbg !1157

30:                                               ; preds = %13
  %31 = load i32, ptr %2, align 4, !dbg !1158
  %32 = call ptr @strerror(i32 noundef %31) #8, !dbg !1160
  %33 = call i32 (ptr, ...) @printf(ptr noundef @.str, ptr noundef %32), !dbg !1161
  call void @exit(i32 noundef 1) #10, !dbg !1162
  unreachable, !dbg !1162

34:                                               ; preds = %13
  %35 = load i32, ptr %7, align 4, !dbg !1163
  %36 = add i32 %35, 1, !dbg !1163
  store i32 %36, ptr %7, align 4, !dbg !1163
  br label %10, !dbg !1138, !llvm.loop !1164

37:                                               ; preds = %10
  %38 = call i32 @pthread_attr_destroy(ptr noundef %5) #8, !dbg !1166
  store i32 0, ptr %7, align 4, !dbg !1167
  br label %39, !dbg !1168

39:                                               ; preds = %53, %37
  %40 = load i32, ptr %7, align 4, !dbg !1169
  %41 = icmp ult i32 %40, 2, !dbg !1170
  br i1 %41, label %42, label %56, !dbg !1168

42:                                               ; preds = %39
  %43 = load i32, ptr %7, align 4, !dbg !1171
  %44 = zext i32 %43 to i64, !dbg !1173
  %45 = getelementptr inbounds [2 x i64], ptr %3, i64 0, i64 %44, !dbg !1173
  %46 = load i64, ptr %45, align 8, !dbg !1173
  %47 = call i32 @pthread_join(i64 noundef %46, ptr noundef %4), !dbg !1174
  store i32 %47, ptr %2, align 4, !dbg !1175
  %48 = load i32, ptr %2, align 4, !dbg !1176
  %49 = icmp ne i32 %48, 0, !dbg !1176
  br i1 %49, label %50, label %53, !dbg !1178

50:                                               ; preds = %42
  %51 = load i32, ptr %2, align 4, !dbg !1179
  %52 = call i32 (ptr, ...) @printf(ptr noundef @.str.1, i32 noundef %51), !dbg !1181
  call void @exit(i32 noundef 1) #10, !dbg !1182
  unreachable, !dbg !1182

53:                                               ; preds = %42
  %54 = load i32, ptr %7, align 4, !dbg !1183
  %55 = add i32 %54, 1, !dbg !1183
  store i32 %55, ptr %7, align 4, !dbg !1183
  br label %39, !dbg !1168, !llvm.loop !1184

56:                                               ; preds = %39
  %57 = call noundef nonnull align 8 dereferenceable(8) ptr @_ZStlsISt11char_traitsIcEERSt13basic_ostreamIcT_ES5_PKc(ptr noundef nonnull align 8 dereferenceable(8) @_ZSt4cout, ptr noundef @.str.2), !dbg !1186
  %58 = load i64, ptr @counter, align 8, !dbg !1187
  %59 = call noundef nonnull align 8 dereferenceable(8) ptr @_ZNSolsEm(ptr noundef nonnull align 8 dereferenceable(8) %57, i64 noundef %58), !dbg !1188
  %60 = call noundef nonnull align 8 dereferenceable(8) ptr @_ZStlsISt11char_traitsIcEERSt13basic_ostreamIcT_ES5_PKc(ptr noundef nonnull align 8 dereferenceable(8) %59, ptr noundef @.str.3), !dbg !1189
  ret i32 0, !dbg !1190
}

; Function Attrs: nounwind
declare i32 @pthread_attr_init(ptr noundef) #2

; Function Attrs: nounwind
declare i32 @pthread_attr_setdetachstate(ptr noundef, i32 noundef) #2

; Function Attrs: nocallback nofree nounwind willreturn memory(argmem: write)
declare void @llvm.memset.p0.i64(ptr nocapture writeonly, i8, i64, i1 immarg) #5

; Function Attrs: nounwind
declare i32 @pthread_create(ptr noundef, ptr noundef, ptr noundef, ptr noundef) #2

declare i32 @printf(ptr noundef, ...) #6

; Function Attrs: nounwind
declare ptr @strerror(i32 noundef) #2

; Function Attrs: noreturn nounwind
declare void @exit(i32 noundef) #7

; Function Attrs: nounwind
declare i32 @pthread_attr_destroy(ptr noundef) #2

declare i32 @pthread_join(i64 noundef, ptr noundef) #6

declare noundef nonnull align 8 dereferenceable(8) ptr @_ZStlsISt11char_traitsIcEERSt13basic_ostreamIcT_ES5_PKc(ptr noundef nonnull align 8 dereferenceable(8), ptr noundef) #6

declare noundef nonnull align 8 dereferenceable(8) ptr @_ZNSolsEm(ptr noundef nonnull align 8 dereferenceable(8), i64 noundef) #6

attributes #0 = { mustprogress noinline optnone uwtable "frame-pointer"="all" "min-legal-vector-width"="0" "no-trapping-math"="true" "stack-protector-buffer-size"="8" "target-cpu"="x86-64" "target-features"="+cmov,+cx8,+fxsr,+mmx,+sse,+sse2,+x87" "tune-cpu"="generic" }
attributes #1 = { nocallback nofree nosync nounwind speculatable willreturn memory(none) }
attributes #2 = { nounwind "frame-pointer"="all" "no-trapping-math"="true" "stack-protector-buffer-size"="8" "target-cpu"="x86-64" "target-features"="+cmov,+cx8,+fxsr,+mmx,+sse,+sse2,+x87" "tune-cpu"="generic" }
attributes #3 = { noreturn "frame-pointer"="all" "no-trapping-math"="true" "stack-protector-buffer-size"="8" "target-cpu"="x86-64" "target-features"="+cmov,+cx8,+fxsr,+mmx,+sse,+sse2,+x87" "tune-cpu"="generic" }
attributes #4 = { mustprogress noinline norecurse optnone uwtable "frame-pointer"="all" "min-legal-vector-width"="0" "no-trapping-math"="true" "stack-protector-buffer-size"="8" "target-cpu"="x86-64" "target-features"="+cmov,+cx8,+fxsr,+mmx,+sse,+sse2,+x87" "tune-cpu"="generic" }
attributes #5 = { nocallback nofree nounwind willreturn memory(argmem: write) }
attributes #6 = { "frame-pointer"="all" "no-trapping-math"="true" "stack-protector-buffer-size"="8" "target-cpu"="x86-64" "target-features"="+cmov,+cx8,+fxsr,+mmx,+sse,+sse2,+x87" "tune-cpu"="generic" }
attributes #7 = { noreturn nounwind "frame-pointer"="all" "no-trapping-math"="true" "stack-protector-buffer-size"="8" "target-cpu"="x86-64" "target-features"="+cmov,+cx8,+fxsr,+mmx,+sse,+sse2,+x87" "tune-cpu"="generic" }
attributes #8 = { nounwind }
attributes #9 = { noreturn }
attributes #10 = { noreturn nounwind }

!llvm.dbg.cu = !{!2}
!llvm.module.flags = !{!1074, !1075, !1076, !1077, !1078, !1079, !1080}
!llvm.ident = !{!1081}

!0 = !DIGlobalVariableExpression(var: !1, expr: !DIExpression())
!1 = distinct !DIGlobalVariable(name: "counter", scope: !2, file: !3, line: 15, type: !60, isLocal: false, isDefinition: true)
!2 = distinct !DICompileUnit(language: DW_LANG_C_plus_plus_14, file: !3, producer: "Ubuntu clang version 18.1.8 (++20240731025043+3b5b5c1ec4a3-1~exp1~20240731145144.92)", isOptimized: false, flags: "/usr/lib/llvm-18/bin/clang -S -emit-llvm -g -O0 b.cpp -o b_out.ll", runtimeVersion: 0, emissionKind: FullDebug, enums: !4, retainedTypes: !11, globals: !22, imports: !89, splitDebugInlining: false, nameTableKind: None)
!3 = !DIFile(filename: "b.cpp", directory: "/home/aleatoryfreak/iitk/cs636/Aerodrome-analysis/Testing Code", checksumkind: CSK_MD5, checksum: "a9e58063b89ac8e5e90d92df3b17011a")
!4 = !{!5}
!5 = !DICompositeType(tag: DW_TAG_enumeration_type, file: !6, line: 37, baseType: !7, size: 32, elements: !8)
!6 = !DIFile(filename: "/usr/include/pthread.h", directory: "", checksumkind: CSK_MD5, checksum: "cbcd748b3d3ecaa7356dc2925b45d819")
!7 = !DIBasicType(name: "unsigned int", size: 32, encoding: DW_ATE_unsigned)
!8 = !{!9, !10}
!9 = !DIEnumerator(name: "PTHREAD_CREATE_JOINABLE", value: 0, isUnsigned: true)
!10 = !DIEnumerator(name: "PTHREAD_CREATE_DETACHED", value: 1, isUnsigned: true)
!11 = !{!12, !21}
!12 = !DIDerivedType(tag: DW_TAG_pointer_type, baseType: !13, size: 64)
!13 = distinct !DICompositeType(tag: DW_TAG_structure_type, name: "thr_args", file: !3, line: 18, size: 16, flags: DIFlagTypePassByValue, elements: !14, identifier: "_ZTS8thr_args")
!14 = !{!15}
!15 = !DIDerivedType(tag: DW_TAG_member, name: "id", scope: !13, file: !3, line: 20, baseType: !16, size: 16)
!16 = !DIDerivedType(tag: DW_TAG_typedef, name: "uint16_t", file: !17, line: 25, baseType: !18)
!17 = !DIFile(filename: "/usr/include/x86_64-linux-gnu/bits/stdint-uintn.h", directory: "", checksumkind: CSK_MD5, checksum: "256fcabbefa27ca8cf5e6d37525e6e16")
!18 = !DIDerivedType(tag: DW_TAG_typedef, name: "__uint16_t", file: !19, line: 40, baseType: !20)
!19 = !DIFile(filename: "/usr/include/x86_64-linux-gnu/bits/types.h", directory: "", checksumkind: CSK_MD5, checksum: "e1865d9fe29fe1b5ced550b7ba458f9e")
!20 = !DIBasicType(name: "unsigned short", size: 16, encoding: DW_ATE_unsigned)
!21 = !DIDerivedType(tag: DW_TAG_pointer_type, baseType: null, size: 64)
!22 = !{!0, !23, !57, !63, !68, !74, !79, !84}
!23 = !DIGlobalVariableExpression(var: !24, expr: !DIExpression())
!24 = distinct !DIGlobalVariable(name: "mtx", scope: !2, file: !3, line: 16, type: !25, isLocal: false, isDefinition: true)
!25 = !DIDerivedType(tag: DW_TAG_typedef, name: "pthread_mutex_t", file: !26, line: 72, baseType: !27)
!26 = !DIFile(filename: "/usr/include/x86_64-linux-gnu/bits/pthreadtypes.h", directory: "", checksumkind: CSK_MD5, checksum: "8a5acdbeec491eca11cf81cb1ef77ea7")
!27 = distinct !DICompositeType(tag: DW_TAG_union_type, file: !26, line: 67, size: 320, flags: DIFlagTypePassByValue, elements: !28, identifier: "_ZTS15pthread_mutex_t")
!28 = !{!29, !50, !55}
!29 = !DIDerivedType(tag: DW_TAG_member, name: "__data", scope: !27, file: !26, line: 69, baseType: !30, size: 320)
!30 = distinct !DICompositeType(tag: DW_TAG_structure_type, name: "__pthread_mutex_s", file: !31, line: 22, size: 320, flags: DIFlagTypePassByValue, elements: !32, identifier: "_ZTS17__pthread_mutex_s")
!31 = !DIFile(filename: "/usr/include/x86_64-linux-gnu/bits/struct_mutex.h", directory: "", checksumkind: CSK_MD5, checksum: "6b075eca9ab0e2d761b2afc4ecfab776")
!32 = !{!33, !35, !36, !37, !38, !39, !41, !42}
!33 = !DIDerivedType(tag: DW_TAG_member, name: "__lock", scope: !30, file: !31, line: 24, baseType: !34, size: 32)
!34 = !DIBasicType(name: "int", size: 32, encoding: DW_ATE_signed)
!35 = !DIDerivedType(tag: DW_TAG_member, name: "__count", scope: !30, file: !31, line: 25, baseType: !7, size: 32, offset: 32)
!36 = !DIDerivedType(tag: DW_TAG_member, name: "__owner", scope: !30, file: !31, line: 26, baseType: !34, size: 32, offset: 64)
!37 = !DIDerivedType(tag: DW_TAG_member, name: "__nusers", scope: !30, file: !31, line: 28, baseType: !7, size: 32, offset: 96)
!38 = !DIDerivedType(tag: DW_TAG_member, name: "__kind", scope: !30, file: !31, line: 32, baseType: !34, size: 32, offset: 128)
!39 = !DIDerivedType(tag: DW_TAG_member, name: "__spins", scope: !30, file: !31, line: 34, baseType: !40, size: 16, offset: 160)
!40 = !DIBasicType(name: "short", size: 16, encoding: DW_ATE_signed)
!41 = !DIDerivedType(tag: DW_TAG_member, name: "__elision", scope: !30, file: !31, line: 35, baseType: !40, size: 16, offset: 176)
!42 = !DIDerivedType(tag: DW_TAG_member, name: "__list", scope: !30, file: !31, line: 36, baseType: !43, size: 128, offset: 192)
!43 = !DIDerivedType(tag: DW_TAG_typedef, name: "__pthread_list_t", file: !44, line: 55, baseType: !45)
!44 = !DIFile(filename: "/usr/include/x86_64-linux-gnu/bits/thread-shared-types.h", directory: "", checksumkind: CSK_MD5, checksum: "b9a7199822bce372686baacd32a9f4f3")
!45 = distinct !DICompositeType(tag: DW_TAG_structure_type, name: "__pthread_internal_list", file: !44, line: 51, size: 128, flags: DIFlagTypePassByValue, elements: !46, identifier: "_ZTS23__pthread_internal_list")
!46 = !{!47, !49}
!47 = !DIDerivedType(tag: DW_TAG_member, name: "__prev", scope: !45, file: !44, line: 53, baseType: !48, size: 64)
!48 = !DIDerivedType(tag: DW_TAG_pointer_type, baseType: !45, size: 64)
!49 = !DIDerivedType(tag: DW_TAG_member, name: "__next", scope: !45, file: !44, line: 54, baseType: !48, size: 64, offset: 64)
!50 = !DIDerivedType(tag: DW_TAG_member, name: "__size", scope: !27, file: !26, line: 70, baseType: !51, size: 320)
!51 = !DICompositeType(tag: DW_TAG_array_type, baseType: !52, size: 320, elements: !53)
!52 = !DIBasicType(name: "char", size: 8, encoding: DW_ATE_signed_char)
!53 = !{!54}
!54 = !DISubrange(count: 40)
!55 = !DIDerivedType(tag: DW_TAG_member, name: "__align", scope: !27, file: !26, line: 71, baseType: !56, size: 64)
!56 = !DIBasicType(name: "long", size: 64, encoding: DW_ATE_signed)
!57 = !DIGlobalVariableExpression(var: !58, expr: !DIExpression(DW_OP_constu, 100, DW_OP_stack_value))
!58 = distinct !DIGlobalVariable(name: "ITERS", scope: !2, file: !3, line: 14, type: !59, isLocal: true, isDefinition: true)
!59 = !DIDerivedType(tag: DW_TAG_const_type, baseType: !60)
!60 = !DIDerivedType(tag: DW_TAG_typedef, name: "uint64_t", file: !17, line: 27, baseType: !61)
!61 = !DIDerivedType(tag: DW_TAG_typedef, name: "__uint64_t", file: !19, line: 45, baseType: !62)
!62 = !DIBasicType(name: "unsigned long", size: 64, encoding: DW_ATE_unsigned)
!63 = !DIGlobalVariableExpression(var: !64, expr: !DIExpression(DW_OP_constu, 2, DW_OP_stack_value))
!64 = distinct !DIGlobalVariable(name: "NUM_THREADS", scope: !2, file: !3, line: 13, type: !65, isLocal: true, isDefinition: true)
!65 = !DIDerivedType(tag: DW_TAG_const_type, baseType: !66)
!66 = !DIDerivedType(tag: DW_TAG_typedef, name: "uint32_t", file: !17, line: 26, baseType: !67)
!67 = !DIDerivedType(tag: DW_TAG_typedef, name: "__uint32_t", file: !19, line: 42, baseType: !7)
!68 = !DIGlobalVariableExpression(var: !69, expr: !DIExpression())
!69 = distinct !DIGlobalVariable(scope: null, file: !3, line: 55, type: !70, isLocal: true, isDefinition: true)
!70 = !DICompositeType(tag: DW_TAG_array_type, baseType: !71, size: 256, elements: !72)
!71 = !DIDerivedType(tag: DW_TAG_const_type, baseType: !52)
!72 = !{!73}
!73 = !DISubrange(count: 32)
!74 = !DIGlobalVariableExpression(var: !75, expr: !DIExpression())
!75 = distinct !DIGlobalVariable(scope: null, file: !3, line: 68, type: !76, isLocal: true, isDefinition: true)
!76 = !DICompositeType(tag: DW_TAG_array_type, baseType: !71, size: 368, elements: !77)
!77 = !{!78}
!78 = !DISubrange(count: 46)
!79 = !DIGlobalVariableExpression(var: !80, expr: !DIExpression())
!80 = distinct !DIGlobalVariable(scope: null, file: !3, line: 74, type: !81, isLocal: true, isDefinition: true)
!81 = !DICompositeType(tag: DW_TAG_array_type, baseType: !71, size: 128, elements: !82)
!82 = !{!83}
!83 = !DISubrange(count: 16)
!84 = !DIGlobalVariableExpression(var: !85, expr: !DIExpression())
!85 = distinct !DIGlobalVariable(scope: null, file: !3, line: 74, type: !86, isLocal: true, isDefinition: true)
!86 = !DICompositeType(tag: DW_TAG_array_type, baseType: !71, size: 16, elements: !87)
!87 = !{!88}
!88 = !DISubrange(count: 2)
!89 = !{!90, !97, !100, !103, !106, !109, !111, !113, !115, !119, !122, !125, !128, !131, !133, !137, !138, !139, !140, !142, !144, !146, !148, !151, !154, !157, !160, !163, !165, !171, !175, !181, !185, !191, !196, !198, !204, !208, !212, !222, !224, !228, !232, !236, !241, !245, !249, !253, !257, !265, !269, !273, !275, !279, !283, !287, !293, !297, !301, !303, !311, !315, !323, !325, !329, !333, !337, !341, !346, !351, !356, !357, !358, !359, !361, !362, !363, !364, !365, !366, !367, !373, !377, !383, !387, !391, !395, !399, !401, !403, !407, !411, !415, !419, !423, !425, !427, !429, !433, !437, !441, !443, !445, !462, !465, !470, !478, !483, !487, !491, !495, !499, !501, !503, !507, !513, !517, !523, !529, !531, !535, !539, !543, !547, !558, !560, !564, !568, !572, !574, !578, !582, !586, !588, !590, !594, !602, !606, !610, !614, !616, !622, !624, !630, !634, !638, !642, !646, !650, !654, !656, !658, !662, !666, !670, !672, !676, !680, !682, !684, !688, !692, !696, !700, !701, !702, !703, !704, !705, !706, !707, !708, !709, !710, !714, !718, !723, !727, !731, !736, !740, !742, !744, !746, !748, !750, !752, !754, !756, !758, !760, !762, !764, !766, !770, !774, !780, !785, !789, !791, !793, !795, !797, !804, !808, !812, !816, !820, !824, !828, !832, !834, !838, !844, !848, !852, !854, !856, !860, !864, !866, !868, !870, !872, !874, !876, !878, !882, !886, !890, !894, !898, !902, !904, !908, !912, !916, !920, !922, !924, !928, !932, !933, !934, !935, !936, !937, !945, !951, !954, !955, !957, !959, !961, !963, !967, !969, !971, !973, !975, !977, !979, !981, !983, !987, !991, !993, !997, !1001, !1006, !1010, !1011, !1016, !1020, !1025, !1030, !1034, !1040, !1044, !1046, !1050, !1057, !1062, !1067}
!90 = !DIImportedEntity(tag: DW_TAG_imported_declaration, scope: !91, entity: !92, file: !96, line: 51)
!91 = !DINamespace(name: "std", scope: null)
!92 = !DIDerivedType(tag: DW_TAG_typedef, name: "int8_t", file: !93, line: 24, baseType: !94)
!93 = !DIFile(filename: "/usr/include/x86_64-linux-gnu/bits/stdint-intn.h", directory: "", checksumkind: CSK_MD5, checksum: "649b383a60bfa3eb90e85840b2b0be20")
!94 = !DIDerivedType(tag: DW_TAG_typedef, name: "__int8_t", file: !19, line: 37, baseType: !95)
!95 = !DIBasicType(name: "signed char", size: 8, encoding: DW_ATE_signed_char)
!96 = !DIFile(filename: "/usr/bin/../lib/gcc/x86_64-linux-gnu/13/../../../../include/c++/13/cstdint", directory: "")
!97 = !DIImportedEntity(tag: DW_TAG_imported_declaration, scope: !91, entity: !98, file: !96, line: 52)
!98 = !DIDerivedType(tag: DW_TAG_typedef, name: "int16_t", file: !93, line: 25, baseType: !99)
!99 = !DIDerivedType(tag: DW_TAG_typedef, name: "__int16_t", file: !19, line: 39, baseType: !40)
!100 = !DIImportedEntity(tag: DW_TAG_imported_declaration, scope: !91, entity: !101, file: !96, line: 53)
!101 = !DIDerivedType(tag: DW_TAG_typedef, name: "int32_t", file: !93, line: 26, baseType: !102)
!102 = !DIDerivedType(tag: DW_TAG_typedef, name: "__int32_t", file: !19, line: 41, baseType: !34)
!103 = !DIImportedEntity(tag: DW_TAG_imported_declaration, scope: !91, entity: !104, file: !96, line: 54)
!104 = !DIDerivedType(tag: DW_TAG_typedef, name: "int64_t", file: !93, line: 27, baseType: !105)
!105 = !DIDerivedType(tag: DW_TAG_typedef, name: "__int64_t", file: !19, line: 44, baseType: !56)
!106 = !DIImportedEntity(tag: DW_TAG_imported_declaration, scope: !91, entity: !107, file: !96, line: 56)
!107 = !DIDerivedType(tag: DW_TAG_typedef, name: "int_fast8_t", file: !108, line: 47, baseType: !95)
!108 = !DIFile(filename: "/usr/include/stdint.h", directory: "", checksumkind: CSK_MD5, checksum: "bfb03fa9c46a839e35c32b929fbdbb8e")
!109 = !DIImportedEntity(tag: DW_TAG_imported_declaration, scope: !91, entity: !110, file: !96, line: 57)
!110 = !DIDerivedType(tag: DW_TAG_typedef, name: "int_fast16_t", file: !108, line: 49, baseType: !56)
!111 = !DIImportedEntity(tag: DW_TAG_imported_declaration, scope: !91, entity: !112, file: !96, line: 58)
!112 = !DIDerivedType(tag: DW_TAG_typedef, name: "int_fast32_t", file: !108, line: 50, baseType: !56)
!113 = !DIImportedEntity(tag: DW_TAG_imported_declaration, scope: !91, entity: !114, file: !96, line: 59)
!114 = !DIDerivedType(tag: DW_TAG_typedef, name: "int_fast64_t", file: !108, line: 51, baseType: !56)
!115 = !DIImportedEntity(tag: DW_TAG_imported_declaration, scope: !91, entity: !116, file: !96, line: 61)
!116 = !DIDerivedType(tag: DW_TAG_typedef, name: "int_least8_t", file: !117, line: 25, baseType: !118)
!117 = !DIFile(filename: "/usr/include/x86_64-linux-gnu/bits/stdint-least.h", directory: "", checksumkind: CSK_MD5, checksum: "a866be81c480920b0293bd5f6336a0a3")
!118 = !DIDerivedType(tag: DW_TAG_typedef, name: "__int_least8_t", file: !19, line: 52, baseType: !94)
!119 = !DIImportedEntity(tag: DW_TAG_imported_declaration, scope: !91, entity: !120, file: !96, line: 62)
!120 = !DIDerivedType(tag: DW_TAG_typedef, name: "int_least16_t", file: !117, line: 26, baseType: !121)
!121 = !DIDerivedType(tag: DW_TAG_typedef, name: "__int_least16_t", file: !19, line: 54, baseType: !99)
!122 = !DIImportedEntity(tag: DW_TAG_imported_declaration, scope: !91, entity: !123, file: !96, line: 63)
!123 = !DIDerivedType(tag: DW_TAG_typedef, name: "int_least32_t", file: !117, line: 27, baseType: !124)
!124 = !DIDerivedType(tag: DW_TAG_typedef, name: "__int_least32_t", file: !19, line: 56, baseType: !102)
!125 = !DIImportedEntity(tag: DW_TAG_imported_declaration, scope: !91, entity: !126, file: !96, line: 64)
!126 = !DIDerivedType(tag: DW_TAG_typedef, name: "int_least64_t", file: !117, line: 28, baseType: !127)
!127 = !DIDerivedType(tag: DW_TAG_typedef, name: "__int_least64_t", file: !19, line: 58, baseType: !105)
!128 = !DIImportedEntity(tag: DW_TAG_imported_declaration, scope: !91, entity: !129, file: !96, line: 66)
!129 = !DIDerivedType(tag: DW_TAG_typedef, name: "intmax_t", file: !108, line: 90, baseType: !130)
!130 = !DIDerivedType(tag: DW_TAG_typedef, name: "__intmax_t", file: !19, line: 72, baseType: !56)
!131 = !DIImportedEntity(tag: DW_TAG_imported_declaration, scope: !91, entity: !132, file: !96, line: 67)
!132 = !DIDerivedType(tag: DW_TAG_typedef, name: "intptr_t", file: !108, line: 76, baseType: !56)
!133 = !DIImportedEntity(tag: DW_TAG_imported_declaration, scope: !91, entity: !134, file: !96, line: 69)
!134 = !DIDerivedType(tag: DW_TAG_typedef, name: "uint8_t", file: !17, line: 24, baseType: !135)
!135 = !DIDerivedType(tag: DW_TAG_typedef, name: "__uint8_t", file: !19, line: 38, baseType: !136)
!136 = !DIBasicType(name: "unsigned char", size: 8, encoding: DW_ATE_unsigned_char)
!137 = !DIImportedEntity(tag: DW_TAG_imported_declaration, scope: !91, entity: !16, file: !96, line: 70)
!138 = !DIImportedEntity(tag: DW_TAG_imported_declaration, scope: !91, entity: !66, file: !96, line: 71)
!139 = !DIImportedEntity(tag: DW_TAG_imported_declaration, scope: !91, entity: !60, file: !96, line: 72)
!140 = !DIImportedEntity(tag: DW_TAG_imported_declaration, scope: !91, entity: !141, file: !96, line: 74)
!141 = !DIDerivedType(tag: DW_TAG_typedef, name: "uint_fast8_t", file: !108, line: 60, baseType: !136)
!142 = !DIImportedEntity(tag: DW_TAG_imported_declaration, scope: !91, entity: !143, file: !96, line: 75)
!143 = !DIDerivedType(tag: DW_TAG_typedef, name: "uint_fast16_t", file: !108, line: 62, baseType: !62)
!144 = !DIImportedEntity(tag: DW_TAG_imported_declaration, scope: !91, entity: !145, file: !96, line: 76)
!145 = !DIDerivedType(tag: DW_TAG_typedef, name: "uint_fast32_t", file: !108, line: 63, baseType: !62)
!146 = !DIImportedEntity(tag: DW_TAG_imported_declaration, scope: !91, entity: !147, file: !96, line: 77)
!147 = !DIDerivedType(tag: DW_TAG_typedef, name: "uint_fast64_t", file: !108, line: 64, baseType: !62)
!148 = !DIImportedEntity(tag: DW_TAG_imported_declaration, scope: !91, entity: !149, file: !96, line: 79)
!149 = !DIDerivedType(tag: DW_TAG_typedef, name: "uint_least8_t", file: !117, line: 31, baseType: !150)
!150 = !DIDerivedType(tag: DW_TAG_typedef, name: "__uint_least8_t", file: !19, line: 53, baseType: !135)
!151 = !DIImportedEntity(tag: DW_TAG_imported_declaration, scope: !91, entity: !152, file: !96, line: 80)
!152 = !DIDerivedType(tag: DW_TAG_typedef, name: "uint_least16_t", file: !117, line: 32, baseType: !153)
!153 = !DIDerivedType(tag: DW_TAG_typedef, name: "__uint_least16_t", file: !19, line: 55, baseType: !18)
!154 = !DIImportedEntity(tag: DW_TAG_imported_declaration, scope: !91, entity: !155, file: !96, line: 81)
!155 = !DIDerivedType(tag: DW_TAG_typedef, name: "uint_least32_t", file: !117, line: 33, baseType: !156)
!156 = !DIDerivedType(tag: DW_TAG_typedef, name: "__uint_least32_t", file: !19, line: 57, baseType: !67)
!157 = !DIImportedEntity(tag: DW_TAG_imported_declaration, scope: !91, entity: !158, file: !96, line: 82)
!158 = !DIDerivedType(tag: DW_TAG_typedef, name: "uint_least64_t", file: !117, line: 34, baseType: !159)
!159 = !DIDerivedType(tag: DW_TAG_typedef, name: "__uint_least64_t", file: !19, line: 59, baseType: !61)
!160 = !DIImportedEntity(tag: DW_TAG_imported_declaration, scope: !91, entity: !161, file: !96, line: 84)
!161 = !DIDerivedType(tag: DW_TAG_typedef, name: "uintmax_t", file: !108, line: 91, baseType: !162)
!162 = !DIDerivedType(tag: DW_TAG_typedef, name: "__uintmax_t", file: !19, line: 73, baseType: !62)
!163 = !DIImportedEntity(tag: DW_TAG_imported_declaration, scope: !91, entity: !164, file: !96, line: 85)
!164 = !DIDerivedType(tag: DW_TAG_typedef, name: "uintptr_t", file: !108, line: 79, baseType: !62)
!165 = !DIImportedEntity(tag: DW_TAG_imported_declaration, scope: !91, entity: !166, file: !170, line: 52)
!166 = !DISubprogram(name: "abs", scope: !167, file: !167, line: 980, type: !168, flags: DIFlagPrototyped, spFlags: 0)
!167 = !DIFile(filename: "/usr/include/stdlib.h", directory: "", checksumkind: CSK_MD5, checksum: "7fa2ecb2348a66f8b44ab9a15abd0b72")
!168 = !DISubroutineType(types: !169)
!169 = !{!34, !34}
!170 = !DIFile(filename: "/usr/bin/../lib/gcc/x86_64-linux-gnu/13/../../../../include/c++/13/bits/std_abs.h", directory: "")
!171 = !DIImportedEntity(tag: DW_TAG_imported_declaration, scope: !91, entity: !172, file: !174, line: 131)
!172 = !DIDerivedType(tag: DW_TAG_typedef, name: "div_t", file: !167, line: 63, baseType: !173)
!173 = !DICompositeType(tag: DW_TAG_structure_type, file: !167, line: 59, size: 64, flags: DIFlagFwdDecl, identifier: "_ZTS5div_t")
!174 = !DIFile(filename: "/usr/bin/../lib/gcc/x86_64-linux-gnu/13/../../../../include/c++/13/cstdlib", directory: "")
!175 = !DIImportedEntity(tag: DW_TAG_imported_declaration, scope: !91, entity: !176, file: !174, line: 132)
!176 = !DIDerivedType(tag: DW_TAG_typedef, name: "ldiv_t", file: !167, line: 71, baseType: !177)
!177 = distinct !DICompositeType(tag: DW_TAG_structure_type, file: !167, line: 67, size: 128, flags: DIFlagTypePassByValue, elements: !178, identifier: "_ZTS6ldiv_t")
!178 = !{!179, !180}
!179 = !DIDerivedType(tag: DW_TAG_member, name: "quot", scope: !177, file: !167, line: 69, baseType: !56, size: 64)
!180 = !DIDerivedType(tag: DW_TAG_member, name: "rem", scope: !177, file: !167, line: 70, baseType: !56, size: 64, offset: 64)
!181 = !DIImportedEntity(tag: DW_TAG_imported_declaration, scope: !91, entity: !182, file: !174, line: 134)
!182 = !DISubprogram(name: "abort", scope: !167, file: !167, line: 730, type: !183, flags: DIFlagPrototyped | DIFlagNoReturn, spFlags: 0)
!183 = !DISubroutineType(types: !184)
!184 = !{null}
!185 = !DIImportedEntity(tag: DW_TAG_imported_declaration, scope: !91, entity: !186, file: !174, line: 136)
!186 = !DISubprogram(name: "aligned_alloc", scope: !167, file: !167, line: 724, type: !187, flags: DIFlagPrototyped, spFlags: 0)
!187 = !DISubroutineType(types: !188)
!188 = !{!21, !189, !189}
!189 = !DIDerivedType(tag: DW_TAG_typedef, name: "size_t", file: !190, line: 18, baseType: !62)
!190 = !DIFile(filename: "/usr/lib/llvm-18/lib/clang/18/include/__stddef_size_t.h", directory: "", checksumkind: CSK_MD5, checksum: "2c44e821a2b1951cde2eb0fb2e656867")
!191 = !DIImportedEntity(tag: DW_TAG_imported_declaration, scope: !91, entity: !192, file: !174, line: 138)
!192 = !DISubprogram(name: "atexit", scope: !167, file: !167, line: 734, type: !193, flags: DIFlagPrototyped, spFlags: 0)
!193 = !DISubroutineType(types: !194)
!194 = !{!34, !195}
!195 = !DIDerivedType(tag: DW_TAG_pointer_type, baseType: !183, size: 64)
!196 = !DIImportedEntity(tag: DW_TAG_imported_declaration, scope: !91, entity: !197, file: !174, line: 141)
!197 = !DISubprogram(name: "at_quick_exit", scope: !167, file: !167, line: 739, type: !193, flags: DIFlagPrototyped, spFlags: 0)
!198 = !DIImportedEntity(tag: DW_TAG_imported_declaration, scope: !91, entity: !199, file: !174, line: 144)
!199 = !DISubprogram(name: "atof", scope: !167, file: !167, line: 102, type: !200, flags: DIFlagPrototyped, spFlags: 0)
!200 = !DISubroutineType(types: !201)
!201 = !{!202, !203}
!202 = !DIBasicType(name: "double", size: 64, encoding: DW_ATE_float)
!203 = !DIDerivedType(tag: DW_TAG_pointer_type, baseType: !71, size: 64)
!204 = !DIImportedEntity(tag: DW_TAG_imported_declaration, scope: !91, entity: !205, file: !174, line: 145)
!205 = !DISubprogram(name: "atoi", scope: !167, file: !167, line: 105, type: !206, flags: DIFlagPrototyped, spFlags: 0)
!206 = !DISubroutineType(types: !207)
!207 = !{!34, !203}
!208 = !DIImportedEntity(tag: DW_TAG_imported_declaration, scope: !91, entity: !209, file: !174, line: 146)
!209 = !DISubprogram(name: "atol", scope: !167, file: !167, line: 108, type: !210, flags: DIFlagPrototyped, spFlags: 0)
!210 = !DISubroutineType(types: !211)
!211 = !{!56, !203}
!212 = !DIImportedEntity(tag: DW_TAG_imported_declaration, scope: !91, entity: !213, file: !174, line: 147)
!213 = !DISubprogram(name: "bsearch", scope: !167, file: !167, line: 960, type: !214, flags: DIFlagPrototyped, spFlags: 0)
!214 = !DISubroutineType(types: !215)
!215 = !{!21, !216, !216, !189, !189, !218}
!216 = !DIDerivedType(tag: DW_TAG_pointer_type, baseType: !217, size: 64)
!217 = !DIDerivedType(tag: DW_TAG_const_type, baseType: null)
!218 = !DIDerivedType(tag: DW_TAG_typedef, name: "__compar_fn_t", file: !167, line: 948, baseType: !219)
!219 = !DIDerivedType(tag: DW_TAG_pointer_type, baseType: !220, size: 64)
!220 = !DISubroutineType(types: !221)
!221 = !{!34, !216, !216}
!222 = !DIImportedEntity(tag: DW_TAG_imported_declaration, scope: !91, entity: !223, file: !174, line: 148)
!223 = !DISubprogram(name: "calloc", scope: !167, file: !167, line: 675, type: !187, flags: DIFlagPrototyped, spFlags: 0)
!224 = !DIImportedEntity(tag: DW_TAG_imported_declaration, scope: !91, entity: !225, file: !174, line: 149)
!225 = !DISubprogram(name: "div", scope: !167, file: !167, line: 992, type: !226, flags: DIFlagPrototyped, spFlags: 0)
!226 = !DISubroutineType(types: !227)
!227 = !{!172, !34, !34}
!228 = !DIImportedEntity(tag: DW_TAG_imported_declaration, scope: !91, entity: !229, file: !174, line: 150)
!229 = !DISubprogram(name: "exit", scope: !167, file: !167, line: 756, type: !230, flags: DIFlagPrototyped | DIFlagNoReturn, spFlags: 0)
!230 = !DISubroutineType(types: !231)
!231 = !{null, !34}
!232 = !DIImportedEntity(tag: DW_TAG_imported_declaration, scope: !91, entity: !233, file: !174, line: 151)
!233 = !DISubprogram(name: "free", scope: !167, file: !167, line: 687, type: !234, flags: DIFlagPrototyped, spFlags: 0)
!234 = !DISubroutineType(types: !235)
!235 = !{null, !21}
!236 = !DIImportedEntity(tag: DW_TAG_imported_declaration, scope: !91, entity: !237, file: !174, line: 152)
!237 = !DISubprogram(name: "getenv", scope: !167, file: !167, line: 773, type: !238, flags: DIFlagPrototyped, spFlags: 0)
!238 = !DISubroutineType(types: !239)
!239 = !{!240, !203}
!240 = !DIDerivedType(tag: DW_TAG_pointer_type, baseType: !52, size: 64)
!241 = !DIImportedEntity(tag: DW_TAG_imported_declaration, scope: !91, entity: !242, file: !174, line: 153)
!242 = !DISubprogram(name: "labs", scope: !167, file: !167, line: 981, type: !243, flags: DIFlagPrototyped, spFlags: 0)
!243 = !DISubroutineType(types: !244)
!244 = !{!56, !56}
!245 = !DIImportedEntity(tag: DW_TAG_imported_declaration, scope: !91, entity: !246, file: !174, line: 154)
!246 = !DISubprogram(name: "ldiv", scope: !167, file: !167, line: 994, type: !247, flags: DIFlagPrototyped, spFlags: 0)
!247 = !DISubroutineType(types: !248)
!248 = !{!176, !56, !56}
!249 = !DIImportedEntity(tag: DW_TAG_imported_declaration, scope: !91, entity: !250, file: !174, line: 155)
!250 = !DISubprogram(name: "malloc", scope: !167, file: !167, line: 672, type: !251, flags: DIFlagPrototyped, spFlags: 0)
!251 = !DISubroutineType(types: !252)
!252 = !{!21, !189}
!253 = !DIImportedEntity(tag: DW_TAG_imported_declaration, scope: !91, entity: !254, file: !174, line: 157)
!254 = !DISubprogram(name: "mblen", scope: !167, file: !167, line: 1062, type: !255, flags: DIFlagPrototyped, spFlags: 0)
!255 = !DISubroutineType(types: !256)
!256 = !{!34, !203, !189}
!257 = !DIImportedEntity(tag: DW_TAG_imported_declaration, scope: !91, entity: !258, file: !174, line: 158)
!258 = !DISubprogram(name: "mbstowcs", scope: !167, file: !167, line: 1073, type: !259, flags: DIFlagPrototyped, spFlags: 0)
!259 = !DISubroutineType(types: !260)
!260 = !{!189, !261, !264, !189}
!261 = !DIDerivedType(tag: DW_TAG_restrict_type, baseType: !262)
!262 = !DIDerivedType(tag: DW_TAG_pointer_type, baseType: !263, size: 64)
!263 = !DIBasicType(name: "wchar_t", size: 32, encoding: DW_ATE_signed)
!264 = !DIDerivedType(tag: DW_TAG_restrict_type, baseType: !203)
!265 = !DIImportedEntity(tag: DW_TAG_imported_declaration, scope: !91, entity: !266, file: !174, line: 159)
!266 = !DISubprogram(name: "mbtowc", scope: !167, file: !167, line: 1065, type: !267, flags: DIFlagPrototyped, spFlags: 0)
!267 = !DISubroutineType(types: !268)
!268 = !{!34, !261, !264, !189}
!269 = !DIImportedEntity(tag: DW_TAG_imported_declaration, scope: !91, entity: !270, file: !174, line: 161)
!270 = !DISubprogram(name: "qsort", scope: !167, file: !167, line: 970, type: !271, flags: DIFlagPrototyped, spFlags: 0)
!271 = !DISubroutineType(types: !272)
!272 = !{null, !21, !189, !189, !218}
!273 = !DIImportedEntity(tag: DW_TAG_imported_declaration, scope: !91, entity: !274, file: !174, line: 164)
!274 = !DISubprogram(name: "quick_exit", scope: !167, file: !167, line: 762, type: !230, flags: DIFlagPrototyped | DIFlagNoReturn, spFlags: 0)
!275 = !DIImportedEntity(tag: DW_TAG_imported_declaration, scope: !91, entity: !276, file: !174, line: 167)
!276 = !DISubprogram(name: "rand", scope: !167, file: !167, line: 573, type: !277, flags: DIFlagPrototyped, spFlags: 0)
!277 = !DISubroutineType(types: !278)
!278 = !{!34}
!279 = !DIImportedEntity(tag: DW_TAG_imported_declaration, scope: !91, entity: !280, file: !174, line: 168)
!280 = !DISubprogram(name: "realloc", scope: !167, file: !167, line: 683, type: !281, flags: DIFlagPrototyped, spFlags: 0)
!281 = !DISubroutineType(types: !282)
!282 = !{!21, !21, !189}
!283 = !DIImportedEntity(tag: DW_TAG_imported_declaration, scope: !91, entity: !284, file: !174, line: 169)
!284 = !DISubprogram(name: "srand", scope: !167, file: !167, line: 575, type: !285, flags: DIFlagPrototyped, spFlags: 0)
!285 = !DISubroutineType(types: !286)
!286 = !{null, !7}
!287 = !DIImportedEntity(tag: DW_TAG_imported_declaration, scope: !91, entity: !288, file: !174, line: 170)
!288 = !DISubprogram(name: "strtod", scope: !167, file: !167, line: 118, type: !289, flags: DIFlagPrototyped, spFlags: 0)
!289 = !DISubroutineType(types: !290)
!290 = !{!202, !264, !291}
!291 = !DIDerivedType(tag: DW_TAG_restrict_type, baseType: !292)
!292 = !DIDerivedType(tag: DW_TAG_pointer_type, baseType: !240, size: 64)
!293 = !DIImportedEntity(tag: DW_TAG_imported_declaration, scope: !91, entity: !294, file: !174, line: 171)
!294 = !DISubprogram(name: "strtol", linkageName: "__isoc23_strtol", scope: !167, file: !167, line: 215, type: !295, flags: DIFlagPrototyped, spFlags: 0)
!295 = !DISubroutineType(types: !296)
!296 = !{!56, !264, !291, !34}
!297 = !DIImportedEntity(tag: DW_TAG_imported_declaration, scope: !91, entity: !298, file: !174, line: 172)
!298 = !DISubprogram(name: "strtoul", linkageName: "__isoc23_strtoul", scope: !167, file: !167, line: 219, type: !299, flags: DIFlagPrototyped, spFlags: 0)
!299 = !DISubroutineType(types: !300)
!300 = !{!62, !264, !291, !34}
!301 = !DIImportedEntity(tag: DW_TAG_imported_declaration, scope: !91, entity: !302, file: !174, line: 173)
!302 = !DISubprogram(name: "system", scope: !167, file: !167, line: 923, type: !206, flags: DIFlagPrototyped, spFlags: 0)
!303 = !DIImportedEntity(tag: DW_TAG_imported_declaration, scope: !91, entity: !304, file: !174, line: 175)
!304 = !DISubprogram(name: "wcstombs", scope: !167, file: !167, line: 1077, type: !305, flags: DIFlagPrototyped, spFlags: 0)
!305 = !DISubroutineType(types: !306)
!306 = !{!189, !307, !308, !189}
!307 = !DIDerivedType(tag: DW_TAG_restrict_type, baseType: !240)
!308 = !DIDerivedType(tag: DW_TAG_restrict_type, baseType: !309)
!309 = !DIDerivedType(tag: DW_TAG_pointer_type, baseType: !310, size: 64)
!310 = !DIDerivedType(tag: DW_TAG_const_type, baseType: !263)
!311 = !DIImportedEntity(tag: DW_TAG_imported_declaration, scope: !91, entity: !312, file: !174, line: 176)
!312 = !DISubprogram(name: "wctomb", scope: !167, file: !167, line: 1069, type: !313, flags: DIFlagPrototyped, spFlags: 0)
!313 = !DISubroutineType(types: !314)
!314 = !{!34, !240, !263}
!315 = !DIImportedEntity(tag: DW_TAG_imported_declaration, scope: !316, entity: !317, file: !174, line: 204)
!316 = !DINamespace(name: "__gnu_cxx", scope: null)
!317 = !DIDerivedType(tag: DW_TAG_typedef, name: "lldiv_t", file: !167, line: 81, baseType: !318)
!318 = distinct !DICompositeType(tag: DW_TAG_structure_type, file: !167, line: 77, size: 128, flags: DIFlagTypePassByValue, elements: !319, identifier: "_ZTS7lldiv_t")
!319 = !{!320, !322}
!320 = !DIDerivedType(tag: DW_TAG_member, name: "quot", scope: !318, file: !167, line: 79, baseType: !321, size: 64)
!321 = !DIBasicType(name: "long long", size: 64, encoding: DW_ATE_signed)
!322 = !DIDerivedType(tag: DW_TAG_member, name: "rem", scope: !318, file: !167, line: 80, baseType: !321, size: 64, offset: 64)
!323 = !DIImportedEntity(tag: DW_TAG_imported_declaration, scope: !316, entity: !324, file: !174, line: 210)
!324 = !DISubprogram(name: "_Exit", scope: !167, file: !167, line: 768, type: !230, flags: DIFlagPrototyped | DIFlagNoReturn, spFlags: 0)
!325 = !DIImportedEntity(tag: DW_TAG_imported_declaration, scope: !316, entity: !326, file: !174, line: 214)
!326 = !DISubprogram(name: "llabs", scope: !167, file: !167, line: 984, type: !327, flags: DIFlagPrototyped, spFlags: 0)
!327 = !DISubroutineType(types: !328)
!328 = !{!321, !321}
!329 = !DIImportedEntity(tag: DW_TAG_imported_declaration, scope: !316, entity: !330, file: !174, line: 220)
!330 = !DISubprogram(name: "lldiv", scope: !167, file: !167, line: 998, type: !331, flags: DIFlagPrototyped, spFlags: 0)
!331 = !DISubroutineType(types: !332)
!332 = !{!317, !321, !321}
!333 = !DIImportedEntity(tag: DW_TAG_imported_declaration, scope: !316, entity: !334, file: !174, line: 231)
!334 = !DISubprogram(name: "atoll", scope: !167, file: !167, line: 113, type: !335, flags: DIFlagPrototyped, spFlags: 0)
!335 = !DISubroutineType(types: !336)
!336 = !{!321, !203}
!337 = !DIImportedEntity(tag: DW_TAG_imported_declaration, scope: !316, entity: !338, file: !174, line: 232)
!338 = !DISubprogram(name: "strtoll", linkageName: "__isoc23_strtoll", scope: !167, file: !167, line: 238, type: !339, flags: DIFlagPrototyped, spFlags: 0)
!339 = !DISubroutineType(types: !340)
!340 = !{!321, !264, !291, !34}
!341 = !DIImportedEntity(tag: DW_TAG_imported_declaration, scope: !316, entity: !342, file: !174, line: 233)
!342 = !DISubprogram(name: "strtoull", linkageName: "__isoc23_strtoull", scope: !167, file: !167, line: 243, type: !343, flags: DIFlagPrototyped, spFlags: 0)
!343 = !DISubroutineType(types: !344)
!344 = !{!345, !264, !291, !34}
!345 = !DIBasicType(name: "unsigned long long", size: 64, encoding: DW_ATE_unsigned)
!346 = !DIImportedEntity(tag: DW_TAG_imported_declaration, scope: !316, entity: !347, file: !174, line: 235)
!347 = !DISubprogram(name: "strtof", scope: !167, file: !167, line: 124, type: !348, flags: DIFlagPrototyped, spFlags: 0)
!348 = !DISubroutineType(types: !349)
!349 = !{!350, !264, !291}
!350 = !DIBasicType(name: "float", size: 32, encoding: DW_ATE_float)
!351 = !DIImportedEntity(tag: DW_TAG_imported_declaration, scope: !316, entity: !352, file: !174, line: 236)
!352 = !DISubprogram(name: "strtold", scope: !167, file: !167, line: 127, type: !353, flags: DIFlagPrototyped, spFlags: 0)
!353 = !DISubroutineType(types: !354)
!354 = !{!355, !264, !291}
!355 = !DIBasicType(name: "long double", size: 128, encoding: DW_ATE_float)
!356 = !DIImportedEntity(tag: DW_TAG_imported_declaration, scope: !91, entity: !317, file: !174, line: 244)
!357 = !DIImportedEntity(tag: DW_TAG_imported_declaration, scope: !91, entity: !324, file: !174, line: 246)
!358 = !DIImportedEntity(tag: DW_TAG_imported_declaration, scope: !91, entity: !326, file: !174, line: 248)
!359 = !DIImportedEntity(tag: DW_TAG_imported_declaration, scope: !91, entity: !360, file: !174, line: 249)
!360 = !DISubprogram(name: "div", linkageName: "_ZN9__gnu_cxx3divExx", scope: !316, file: !174, line: 217, type: !331, flags: DIFlagPrototyped, spFlags: 0)
!361 = !DIImportedEntity(tag: DW_TAG_imported_declaration, scope: !91, entity: !330, file: !174, line: 250)
!362 = !DIImportedEntity(tag: DW_TAG_imported_declaration, scope: !91, entity: !334, file: !174, line: 252)
!363 = !DIImportedEntity(tag: DW_TAG_imported_declaration, scope: !91, entity: !347, file: !174, line: 253)
!364 = !DIImportedEntity(tag: DW_TAG_imported_declaration, scope: !91, entity: !338, file: !174, line: 254)
!365 = !DIImportedEntity(tag: DW_TAG_imported_declaration, scope: !91, entity: !342, file: !174, line: 255)
!366 = !DIImportedEntity(tag: DW_TAG_imported_declaration, scope: !91, entity: !352, file: !174, line: 256)
!367 = !DIImportedEntity(tag: DW_TAG_imported_declaration, scope: !91, entity: !368, file: !372, line: 77)
!368 = !DISubprogram(name: "memchr", scope: !369, file: !369, line: 89, type: !370, flags: DIFlagPrototyped, spFlags: 0)
!369 = !DIFile(filename: "/usr/include/string.h", directory: "", checksumkind: CSK_MD5, checksum: "165db1185644f68894fa9e0d17055d70")
!370 = !DISubroutineType(types: !371)
!371 = !{!216, !216, !34, !189}
!372 = !DIFile(filename: "/usr/bin/../lib/gcc/x86_64-linux-gnu/13/../../../../include/c++/13/cstring", directory: "")
!373 = !DIImportedEntity(tag: DW_TAG_imported_declaration, scope: !91, entity: !374, file: !372, line: 78)
!374 = !DISubprogram(name: "memcmp", scope: !369, file: !369, line: 64, type: !375, flags: DIFlagPrototyped, spFlags: 0)
!375 = !DISubroutineType(types: !376)
!376 = !{!34, !216, !216, !189}
!377 = !DIImportedEntity(tag: DW_TAG_imported_declaration, scope: !91, entity: !378, file: !372, line: 79)
!378 = !DISubprogram(name: "memcpy", scope: !369, file: !369, line: 43, type: !379, flags: DIFlagPrototyped, spFlags: 0)
!379 = !DISubroutineType(types: !380)
!380 = !{!21, !381, !382, !189}
!381 = !DIDerivedType(tag: DW_TAG_restrict_type, baseType: !21)
!382 = !DIDerivedType(tag: DW_TAG_restrict_type, baseType: !216)
!383 = !DIImportedEntity(tag: DW_TAG_imported_declaration, scope: !91, entity: !384, file: !372, line: 80)
!384 = !DISubprogram(name: "memmove", scope: !369, file: !369, line: 47, type: !385, flags: DIFlagPrototyped, spFlags: 0)
!385 = !DISubroutineType(types: !386)
!386 = !{!21, !21, !216, !189}
!387 = !DIImportedEntity(tag: DW_TAG_imported_declaration, scope: !91, entity: !388, file: !372, line: 81)
!388 = !DISubprogram(name: "memset", scope: !369, file: !369, line: 61, type: !389, flags: DIFlagPrototyped, spFlags: 0)
!389 = !DISubroutineType(types: !390)
!390 = !{!21, !21, !34, !189}
!391 = !DIImportedEntity(tag: DW_TAG_imported_declaration, scope: !91, entity: !392, file: !372, line: 82)
!392 = !DISubprogram(name: "strcat", scope: !369, file: !369, line: 149, type: !393, flags: DIFlagPrototyped, spFlags: 0)
!393 = !DISubroutineType(types: !394)
!394 = !{!240, !307, !264}
!395 = !DIImportedEntity(tag: DW_TAG_imported_declaration, scope: !91, entity: !396, file: !372, line: 83)
!396 = !DISubprogram(name: "strcmp", scope: !369, file: !369, line: 156, type: !397, flags: DIFlagPrototyped, spFlags: 0)
!397 = !DISubroutineType(types: !398)
!398 = !{!34, !203, !203}
!399 = !DIImportedEntity(tag: DW_TAG_imported_declaration, scope: !91, entity: !400, file: !372, line: 84)
!400 = !DISubprogram(name: "strcoll", scope: !369, file: !369, line: 163, type: !397, flags: DIFlagPrototyped, spFlags: 0)
!401 = !DIImportedEntity(tag: DW_TAG_imported_declaration, scope: !91, entity: !402, file: !372, line: 85)
!402 = !DISubprogram(name: "strcpy", scope: !369, file: !369, line: 141, type: !393, flags: DIFlagPrototyped, spFlags: 0)
!403 = !DIImportedEntity(tag: DW_TAG_imported_declaration, scope: !91, entity: !404, file: !372, line: 86)
!404 = !DISubprogram(name: "strcspn", scope: !369, file: !369, line: 293, type: !405, flags: DIFlagPrototyped, spFlags: 0)
!405 = !DISubroutineType(types: !406)
!406 = !{!189, !203, !203}
!407 = !DIImportedEntity(tag: DW_TAG_imported_declaration, scope: !91, entity: !408, file: !372, line: 87)
!408 = !DISubprogram(name: "strerror", scope: !369, file: !369, line: 419, type: !409, flags: DIFlagPrototyped, spFlags: 0)
!409 = !DISubroutineType(types: !410)
!410 = !{!240, !34}
!411 = !DIImportedEntity(tag: DW_TAG_imported_declaration, scope: !91, entity: !412, file: !372, line: 88)
!412 = !DISubprogram(name: "strlen", scope: !369, file: !369, line: 407, type: !413, flags: DIFlagPrototyped, spFlags: 0)
!413 = !DISubroutineType(types: !414)
!414 = !{!189, !203}
!415 = !DIImportedEntity(tag: DW_TAG_imported_declaration, scope: !91, entity: !416, file: !372, line: 89)
!416 = !DISubprogram(name: "strncat", scope: !369, file: !369, line: 152, type: !417, flags: DIFlagPrototyped, spFlags: 0)
!417 = !DISubroutineType(types: !418)
!418 = !{!240, !307, !264, !189}
!419 = !DIImportedEntity(tag: DW_TAG_imported_declaration, scope: !91, entity: !420, file: !372, line: 90)
!420 = !DISubprogram(name: "strncmp", scope: !369, file: !369, line: 159, type: !421, flags: DIFlagPrototyped, spFlags: 0)
!421 = !DISubroutineType(types: !422)
!422 = !{!34, !203, !203, !189}
!423 = !DIImportedEntity(tag: DW_TAG_imported_declaration, scope: !91, entity: !424, file: !372, line: 91)
!424 = !DISubprogram(name: "strncpy", scope: !369, file: !369, line: 144, type: !417, flags: DIFlagPrototyped, spFlags: 0)
!425 = !DIImportedEntity(tag: DW_TAG_imported_declaration, scope: !91, entity: !426, file: !372, line: 92)
!426 = !DISubprogram(name: "strspn", scope: !369, file: !369, line: 297, type: !405, flags: DIFlagPrototyped, spFlags: 0)
!427 = !DIImportedEntity(tag: DW_TAG_imported_declaration, scope: !91, entity: !428, file: !372, line: 93)
!428 = !DISubprogram(name: "strtok", scope: !369, file: !369, line: 356, type: !393, flags: DIFlagPrototyped, spFlags: 0)
!429 = !DIImportedEntity(tag: DW_TAG_imported_declaration, scope: !91, entity: !430, file: !372, line: 94)
!430 = !DISubprogram(name: "strxfrm", scope: !369, file: !369, line: 166, type: !431, flags: DIFlagPrototyped, spFlags: 0)
!431 = !DISubroutineType(types: !432)
!432 = !{!189, !307, !264, !189}
!433 = !DIImportedEntity(tag: DW_TAG_imported_declaration, scope: !91, entity: !434, file: !372, line: 95)
!434 = !DISubprogram(name: "strchr", scope: !369, file: !369, line: 228, type: !435, flags: DIFlagPrototyped, spFlags: 0)
!435 = !DISubroutineType(types: !436)
!436 = !{!203, !203, !34}
!437 = !DIImportedEntity(tag: DW_TAG_imported_declaration, scope: !91, entity: !438, file: !372, line: 96)
!438 = !DISubprogram(name: "strpbrk", scope: !369, file: !369, line: 305, type: !439, flags: DIFlagPrototyped, spFlags: 0)
!439 = !DISubroutineType(types: !440)
!440 = !{!203, !203, !203}
!441 = !DIImportedEntity(tag: DW_TAG_imported_declaration, scope: !91, entity: !442, file: !372, line: 97)
!442 = !DISubprogram(name: "strrchr", scope: !369, file: !369, line: 255, type: !435, flags: DIFlagPrototyped, spFlags: 0)
!443 = !DIImportedEntity(tag: DW_TAG_imported_declaration, scope: !91, entity: !444, file: !372, line: 98)
!444 = !DISubprogram(name: "strstr", scope: !369, file: !369, line: 332, type: !439, flags: DIFlagPrototyped, spFlags: 0)
!445 = !DIImportedEntity(tag: DW_TAG_imported_declaration, scope: !91, entity: !446, file: !461, line: 64)
!446 = !DIDerivedType(tag: DW_TAG_typedef, name: "mbstate_t", file: !447, line: 6, baseType: !448)
!447 = !DIFile(filename: "/usr/include/x86_64-linux-gnu/bits/types/mbstate_t.h", directory: "", checksumkind: CSK_MD5, checksum: "ba8742313715e20e434cf6ccb2db98e3")
!448 = !DIDerivedType(tag: DW_TAG_typedef, name: "__mbstate_t", file: !449, line: 21, baseType: !450)
!449 = !DIFile(filename: "/usr/include/x86_64-linux-gnu/bits/types/__mbstate_t.h", directory: "", checksumkind: CSK_MD5, checksum: "82911a3e689448e3691ded3e0b471a55")
!450 = distinct !DICompositeType(tag: DW_TAG_structure_type, file: !449, line: 13, size: 64, flags: DIFlagTypePassByValue, elements: !451, identifier: "_ZTS11__mbstate_t")
!451 = !{!452, !453}
!452 = !DIDerivedType(tag: DW_TAG_member, name: "__count", scope: !450, file: !449, line: 15, baseType: !34, size: 32)
!453 = !DIDerivedType(tag: DW_TAG_member, name: "__value", scope: !450, file: !449, line: 20, baseType: !454, size: 32, offset: 32)
!454 = distinct !DICompositeType(tag: DW_TAG_union_type, scope: !450, file: !449, line: 16, size: 32, flags: DIFlagTypePassByValue, elements: !455, identifier: "_ZTSN11__mbstate_tUt_E")
!455 = !{!456, !457}
!456 = !DIDerivedType(tag: DW_TAG_member, name: "__wch", scope: !454, file: !449, line: 18, baseType: !7, size: 32)
!457 = !DIDerivedType(tag: DW_TAG_member, name: "__wchb", scope: !454, file: !449, line: 19, baseType: !458, size: 32)
!458 = !DICompositeType(tag: DW_TAG_array_type, baseType: !52, size: 32, elements: !459)
!459 = !{!460}
!460 = !DISubrange(count: 4)
!461 = !DIFile(filename: "/usr/bin/../lib/gcc/x86_64-linux-gnu/13/../../../../include/c++/13/cwchar", directory: "")
!462 = !DIImportedEntity(tag: DW_TAG_imported_declaration, scope: !91, entity: !463, file: !461, line: 141)
!463 = !DIDerivedType(tag: DW_TAG_typedef, name: "wint_t", file: !464, line: 20, baseType: !7)
!464 = !DIFile(filename: "/usr/include/x86_64-linux-gnu/bits/types/wint_t.h", directory: "", checksumkind: CSK_MD5, checksum: "aa31b53ef28dc23152ceb41e2763ded3")
!465 = !DIImportedEntity(tag: DW_TAG_imported_declaration, scope: !91, entity: !466, file: !461, line: 143)
!466 = !DISubprogram(name: "btowc", scope: !467, file: !467, line: 309, type: !468, flags: DIFlagPrototyped, spFlags: 0)
!467 = !DIFile(filename: "/usr/include/wchar.h", directory: "", checksumkind: CSK_MD5, checksum: "889114206ea781a9a9a0b33e52589e47")
!468 = !DISubroutineType(types: !469)
!469 = !{!463, !34}
!470 = !DIImportedEntity(tag: DW_TAG_imported_declaration, scope: !91, entity: !471, file: !461, line: 144)
!471 = !DISubprogram(name: "fgetwc", scope: !467, file: !467, line: 935, type: !472, flags: DIFlagPrototyped, spFlags: 0)
!472 = !DISubroutineType(types: !473)
!473 = !{!463, !474}
!474 = !DIDerivedType(tag: DW_TAG_pointer_type, baseType: !475, size: 64)
!475 = !DIDerivedType(tag: DW_TAG_typedef, name: "__FILE", file: !476, line: 5, baseType: !477)
!476 = !DIFile(filename: "/usr/include/x86_64-linux-gnu/bits/types/__FILE.h", directory: "", checksumkind: CSK_MD5, checksum: "72a8fe90981f484acae7c6f3dfc5c2b7")
!477 = !DICompositeType(tag: DW_TAG_structure_type, name: "_IO_FILE", file: !476, line: 4, flags: DIFlagFwdDecl | DIFlagNonTrivial, identifier: "_ZTS8_IO_FILE")
!478 = !DIImportedEntity(tag: DW_TAG_imported_declaration, scope: !91, entity: !479, file: !461, line: 145)
!479 = !DISubprogram(name: "fgetws", scope: !467, file: !467, line: 964, type: !480, flags: DIFlagPrototyped, spFlags: 0)
!480 = !DISubroutineType(types: !481)
!481 = !{!262, !261, !34, !482}
!482 = !DIDerivedType(tag: DW_TAG_restrict_type, baseType: !474)
!483 = !DIImportedEntity(tag: DW_TAG_imported_declaration, scope: !91, entity: !484, file: !461, line: 146)
!484 = !DISubprogram(name: "fputwc", scope: !467, file: !467, line: 949, type: !485, flags: DIFlagPrototyped, spFlags: 0)
!485 = !DISubroutineType(types: !486)
!486 = !{!463, !263, !474}
!487 = !DIImportedEntity(tag: DW_TAG_imported_declaration, scope: !91, entity: !488, file: !461, line: 147)
!488 = !DISubprogram(name: "fputws", scope: !467, file: !467, line: 971, type: !489, flags: DIFlagPrototyped, spFlags: 0)
!489 = !DISubroutineType(types: !490)
!490 = !{!34, !308, !482}
!491 = !DIImportedEntity(tag: DW_TAG_imported_declaration, scope: !91, entity: !492, file: !461, line: 148)
!492 = !DISubprogram(name: "fwide", scope: !467, file: !467, line: 725, type: !493, flags: DIFlagPrototyped, spFlags: 0)
!493 = !DISubroutineType(types: !494)
!494 = !{!34, !474, !34}
!495 = !DIImportedEntity(tag: DW_TAG_imported_declaration, scope: !91, entity: !496, file: !461, line: 149)
!496 = !DISubprogram(name: "fwprintf", scope: !467, file: !467, line: 732, type: !497, flags: DIFlagPrototyped, spFlags: 0)
!497 = !DISubroutineType(types: !498)
!498 = !{!34, !482, !308, null}
!499 = !DIImportedEntity(tag: DW_TAG_imported_declaration, scope: !91, entity: !500, file: !461, line: 150)
!500 = !DISubprogram(name: "fwscanf", linkageName: "__isoc23_fwscanf", scope: !467, file: !467, line: 795, type: !497, flags: DIFlagPrototyped, spFlags: 0)
!501 = !DIImportedEntity(tag: DW_TAG_imported_declaration, scope: !91, entity: !502, file: !461, line: 151)
!502 = !DISubprogram(name: "getwc", scope: !467, file: !467, line: 936, type: !472, flags: DIFlagPrototyped, spFlags: 0)
!503 = !DIImportedEntity(tag: DW_TAG_imported_declaration, scope: !91, entity: !504, file: !461, line: 152)
!504 = !DISubprogram(name: "getwchar", scope: !467, file: !467, line: 942, type: !505, flags: DIFlagPrototyped, spFlags: 0)
!505 = !DISubroutineType(types: !506)
!506 = !{!463}
!507 = !DIImportedEntity(tag: DW_TAG_imported_declaration, scope: !91, entity: !508, file: !461, line: 153)
!508 = !DISubprogram(name: "mbrlen", scope: !467, file: !467, line: 332, type: !509, flags: DIFlagPrototyped, spFlags: 0)
!509 = !DISubroutineType(types: !510)
!510 = !{!189, !264, !189, !511}
!511 = !DIDerivedType(tag: DW_TAG_restrict_type, baseType: !512)
!512 = !DIDerivedType(tag: DW_TAG_pointer_type, baseType: !446, size: 64)
!513 = !DIImportedEntity(tag: DW_TAG_imported_declaration, scope: !91, entity: !514, file: !461, line: 154)
!514 = !DISubprogram(name: "mbrtowc", scope: !467, file: !467, line: 321, type: !515, flags: DIFlagPrototyped, spFlags: 0)
!515 = !DISubroutineType(types: !516)
!516 = !{!189, !261, !264, !189, !511}
!517 = !DIImportedEntity(tag: DW_TAG_imported_declaration, scope: !91, entity: !518, file: !461, line: 155)
!518 = !DISubprogram(name: "mbsinit", scope: !467, file: !467, line: 317, type: !519, flags: DIFlagPrototyped, spFlags: 0)
!519 = !DISubroutineType(types: !520)
!520 = !{!34, !521}
!521 = !DIDerivedType(tag: DW_TAG_pointer_type, baseType: !522, size: 64)
!522 = !DIDerivedType(tag: DW_TAG_const_type, baseType: !446)
!523 = !DIImportedEntity(tag: DW_TAG_imported_declaration, scope: !91, entity: !524, file: !461, line: 156)
!524 = !DISubprogram(name: "mbsrtowcs", scope: !467, file: !467, line: 362, type: !525, flags: DIFlagPrototyped, spFlags: 0)
!525 = !DISubroutineType(types: !526)
!526 = !{!189, !261, !527, !189, !511}
!527 = !DIDerivedType(tag: DW_TAG_restrict_type, baseType: !528)
!528 = !DIDerivedType(tag: DW_TAG_pointer_type, baseType: !203, size: 64)
!529 = !DIImportedEntity(tag: DW_TAG_imported_declaration, scope: !91, entity: !530, file: !461, line: 157)
!530 = !DISubprogram(name: "putwc", scope: !467, file: !467, line: 950, type: !485, flags: DIFlagPrototyped, spFlags: 0)
!531 = !DIImportedEntity(tag: DW_TAG_imported_declaration, scope: !91, entity: !532, file: !461, line: 158)
!532 = !DISubprogram(name: "putwchar", scope: !467, file: !467, line: 956, type: !533, flags: DIFlagPrototyped, spFlags: 0)
!533 = !DISubroutineType(types: !534)
!534 = !{!463, !263}
!535 = !DIImportedEntity(tag: DW_TAG_imported_declaration, scope: !91, entity: !536, file: !461, line: 160)
!536 = !DISubprogram(name: "swprintf", scope: !467, file: !467, line: 742, type: !537, flags: DIFlagPrototyped, spFlags: 0)
!537 = !DISubroutineType(types: !538)
!538 = !{!34, !261, !189, !308, null}
!539 = !DIImportedEntity(tag: DW_TAG_imported_declaration, scope: !91, entity: !540, file: !461, line: 162)
!540 = !DISubprogram(name: "swscanf", linkageName: "__isoc23_swscanf", scope: !467, file: !467, line: 802, type: !541, flags: DIFlagPrototyped, spFlags: 0)
!541 = !DISubroutineType(types: !542)
!542 = !{!34, !308, !308, null}
!543 = !DIImportedEntity(tag: DW_TAG_imported_declaration, scope: !91, entity: !544, file: !461, line: 163)
!544 = !DISubprogram(name: "ungetwc", scope: !467, file: !467, line: 979, type: !545, flags: DIFlagPrototyped, spFlags: 0)
!545 = !DISubroutineType(types: !546)
!546 = !{!463, !463, !474}
!547 = !DIImportedEntity(tag: DW_TAG_imported_declaration, scope: !91, entity: !548, file: !461, line: 164)
!548 = !DISubprogram(name: "vfwprintf", scope: !467, file: !467, line: 750, type: !549, flags: DIFlagPrototyped, spFlags: 0)
!549 = !DISubroutineType(types: !550)
!550 = !{!34, !482, !308, !551}
!551 = !DIDerivedType(tag: DW_TAG_pointer_type, baseType: !552, size: 64)
!552 = distinct !DICompositeType(tag: DW_TAG_structure_type, name: "__va_list_tag", size: 192, flags: DIFlagTypePassByValue, elements: !553, identifier: "_ZTS13__va_list_tag")
!553 = !{!554, !555, !556, !557}
!554 = !DIDerivedType(tag: DW_TAG_member, name: "gp_offset", scope: !552, file: !3, baseType: !7, size: 32)
!555 = !DIDerivedType(tag: DW_TAG_member, name: "fp_offset", scope: !552, file: !3, baseType: !7, size: 32, offset: 32)
!556 = !DIDerivedType(tag: DW_TAG_member, name: "overflow_arg_area", scope: !552, file: !3, baseType: !21, size: 64, offset: 64)
!557 = !DIDerivedType(tag: DW_TAG_member, name: "reg_save_area", scope: !552, file: !3, baseType: !21, size: 64, offset: 128)
!558 = !DIImportedEntity(tag: DW_TAG_imported_declaration, scope: !91, entity: !559, file: !461, line: 166)
!559 = !DISubprogram(name: "vfwscanf", linkageName: "__isoc23_vfwscanf", scope: !467, file: !467, line: 875, type: !549, flags: DIFlagPrototyped, spFlags: 0)
!560 = !DIImportedEntity(tag: DW_TAG_imported_declaration, scope: !91, entity: !561, file: !461, line: 169)
!561 = !DISubprogram(name: "vswprintf", scope: !467, file: !467, line: 763, type: !562, flags: DIFlagPrototyped, spFlags: 0)
!562 = !DISubroutineType(types: !563)
!563 = !{!34, !261, !189, !308, !551}
!564 = !DIImportedEntity(tag: DW_TAG_imported_declaration, scope: !91, entity: !565, file: !461, line: 172)
!565 = !DISubprogram(name: "vswscanf", linkageName: "__isoc23_vswscanf", scope: !467, file: !467, line: 882, type: !566, flags: DIFlagPrototyped, spFlags: 0)
!566 = !DISubroutineType(types: !567)
!567 = !{!34, !308, !308, !551}
!568 = !DIImportedEntity(tag: DW_TAG_imported_declaration, scope: !91, entity: !569, file: !461, line: 174)
!569 = !DISubprogram(name: "vwprintf", scope: !467, file: !467, line: 758, type: !570, flags: DIFlagPrototyped, spFlags: 0)
!570 = !DISubroutineType(types: !571)
!571 = !{!34, !308, !551}
!572 = !DIImportedEntity(tag: DW_TAG_imported_declaration, scope: !91, entity: !573, file: !461, line: 176)
!573 = !DISubprogram(name: "vwscanf", linkageName: "__isoc23_vwscanf", scope: !467, file: !467, line: 879, type: !570, flags: DIFlagPrototyped, spFlags: 0)
!574 = !DIImportedEntity(tag: DW_TAG_imported_declaration, scope: !91, entity: !575, file: !461, line: 178)
!575 = !DISubprogram(name: "wcrtomb", scope: !467, file: !467, line: 326, type: !576, flags: DIFlagPrototyped, spFlags: 0)
!576 = !DISubroutineType(types: !577)
!577 = !{!189, !307, !263, !511}
!578 = !DIImportedEntity(tag: DW_TAG_imported_declaration, scope: !91, entity: !579, file: !461, line: 179)
!579 = !DISubprogram(name: "wcscat", scope: !467, file: !467, line: 121, type: !580, flags: DIFlagPrototyped, spFlags: 0)
!580 = !DISubroutineType(types: !581)
!581 = !{!262, !261, !308}
!582 = !DIImportedEntity(tag: DW_TAG_imported_declaration, scope: !91, entity: !583, file: !461, line: 180)
!583 = !DISubprogram(name: "wcscmp", scope: !467, file: !467, line: 130, type: !584, flags: DIFlagPrototyped, spFlags: 0)
!584 = !DISubroutineType(types: !585)
!585 = !{!34, !309, !309}
!586 = !DIImportedEntity(tag: DW_TAG_imported_declaration, scope: !91, entity: !587, file: !461, line: 181)
!587 = !DISubprogram(name: "wcscoll", scope: !467, file: !467, line: 155, type: !584, flags: DIFlagPrototyped, spFlags: 0)
!588 = !DIImportedEntity(tag: DW_TAG_imported_declaration, scope: !91, entity: !589, file: !461, line: 182)
!589 = !DISubprogram(name: "wcscpy", scope: !467, file: !467, line: 98, type: !580, flags: DIFlagPrototyped, spFlags: 0)
!590 = !DIImportedEntity(tag: DW_TAG_imported_declaration, scope: !91, entity: !591, file: !461, line: 183)
!591 = !DISubprogram(name: "wcscspn", scope: !467, file: !467, line: 212, type: !592, flags: DIFlagPrototyped, spFlags: 0)
!592 = !DISubroutineType(types: !593)
!593 = !{!189, !309, !309}
!594 = !DIImportedEntity(tag: DW_TAG_imported_declaration, scope: !91, entity: !595, file: !461, line: 184)
!595 = !DISubprogram(name: "wcsftime", scope: !467, file: !467, line: 1043, type: !596, flags: DIFlagPrototyped, spFlags: 0)
!596 = !DISubroutineType(types: !597)
!597 = !{!189, !261, !189, !308, !598}
!598 = !DIDerivedType(tag: DW_TAG_restrict_type, baseType: !599)
!599 = !DIDerivedType(tag: DW_TAG_pointer_type, baseType: !600, size: 64)
!600 = !DIDerivedType(tag: DW_TAG_const_type, baseType: !601)
!601 = !DICompositeType(tag: DW_TAG_structure_type, name: "tm", file: !467, line: 94, flags: DIFlagFwdDecl | DIFlagNonTrivial, identifier: "_ZTS2tm")
!602 = !DIImportedEntity(tag: DW_TAG_imported_declaration, scope: !91, entity: !603, file: !461, line: 185)
!603 = !DISubprogram(name: "wcslen", scope: !467, file: !467, line: 247, type: !604, flags: DIFlagPrototyped, spFlags: 0)
!604 = !DISubroutineType(types: !605)
!605 = !{!189, !309}
!606 = !DIImportedEntity(tag: DW_TAG_imported_declaration, scope: !91, entity: !607, file: !461, line: 186)
!607 = !DISubprogram(name: "wcsncat", scope: !467, file: !467, line: 125, type: !608, flags: DIFlagPrototyped, spFlags: 0)
!608 = !DISubroutineType(types: !609)
!609 = !{!262, !261, !308, !189}
!610 = !DIImportedEntity(tag: DW_TAG_imported_declaration, scope: !91, entity: !611, file: !461, line: 187)
!611 = !DISubprogram(name: "wcsncmp", scope: !467, file: !467, line: 133, type: !612, flags: DIFlagPrototyped, spFlags: 0)
!612 = !DISubroutineType(types: !613)
!613 = !{!34, !309, !309, !189}
!614 = !DIImportedEntity(tag: DW_TAG_imported_declaration, scope: !91, entity: !615, file: !461, line: 188)
!615 = !DISubprogram(name: "wcsncpy", scope: !467, file: !467, line: 103, type: !608, flags: DIFlagPrototyped, spFlags: 0)
!616 = !DIImportedEntity(tag: DW_TAG_imported_declaration, scope: !91, entity: !617, file: !461, line: 189)
!617 = !DISubprogram(name: "wcsrtombs", scope: !467, file: !467, line: 368, type: !618, flags: DIFlagPrototyped, spFlags: 0)
!618 = !DISubroutineType(types: !619)
!619 = !{!189, !307, !620, !189, !511}
!620 = !DIDerivedType(tag: DW_TAG_restrict_type, baseType: !621)
!621 = !DIDerivedType(tag: DW_TAG_pointer_type, baseType: !309, size: 64)
!622 = !DIImportedEntity(tag: DW_TAG_imported_declaration, scope: !91, entity: !623, file: !461, line: 190)
!623 = !DISubprogram(name: "wcsspn", scope: !467, file: !467, line: 216, type: !592, flags: DIFlagPrototyped, spFlags: 0)
!624 = !DIImportedEntity(tag: DW_TAG_imported_declaration, scope: !91, entity: !625, file: !461, line: 191)
!625 = !DISubprogram(name: "wcstod", scope: !467, file: !467, line: 402, type: !626, flags: DIFlagPrototyped, spFlags: 0)
!626 = !DISubroutineType(types: !627)
!627 = !{!202, !308, !628}
!628 = !DIDerivedType(tag: DW_TAG_restrict_type, baseType: !629)
!629 = !DIDerivedType(tag: DW_TAG_pointer_type, baseType: !262, size: 64)
!630 = !DIImportedEntity(tag: DW_TAG_imported_declaration, scope: !91, entity: !631, file: !461, line: 193)
!631 = !DISubprogram(name: "wcstof", scope: !467, file: !467, line: 407, type: !632, flags: DIFlagPrototyped, spFlags: 0)
!632 = !DISubroutineType(types: !633)
!633 = !{!350, !308, !628}
!634 = !DIImportedEntity(tag: DW_TAG_imported_declaration, scope: !91, entity: !635, file: !461, line: 195)
!635 = !DISubprogram(name: "wcstok", scope: !467, file: !467, line: 242, type: !636, flags: DIFlagPrototyped, spFlags: 0)
!636 = !DISubroutineType(types: !637)
!637 = !{!262, !261, !308, !628}
!638 = !DIImportedEntity(tag: DW_TAG_imported_declaration, scope: !91, entity: !639, file: !461, line: 196)
!639 = !DISubprogram(name: "wcstol", linkageName: "__isoc23_wcstol", scope: !467, file: !467, line: 500, type: !640, flags: DIFlagPrototyped, spFlags: 0)
!640 = !DISubroutineType(types: !641)
!641 = !{!56, !308, !628, !34}
!642 = !DIImportedEntity(tag: DW_TAG_imported_declaration, scope: !91, entity: !643, file: !461, line: 197)
!643 = !DISubprogram(name: "wcstoul", linkageName: "__isoc23_wcstoul", scope: !467, file: !467, line: 503, type: !644, flags: DIFlagPrototyped, spFlags: 0)
!644 = !DISubroutineType(types: !645)
!645 = !{!62, !308, !628, !34}
!646 = !DIImportedEntity(tag: DW_TAG_imported_declaration, scope: !91, entity: !647, file: !461, line: 198)
!647 = !DISubprogram(name: "wcsxfrm", scope: !467, file: !467, line: 159, type: !648, flags: DIFlagPrototyped, spFlags: 0)
!648 = !DISubroutineType(types: !649)
!649 = !{!189, !261, !308, !189}
!650 = !DIImportedEntity(tag: DW_TAG_imported_declaration, scope: !91, entity: !651, file: !461, line: 199)
!651 = !DISubprogram(name: "wctob", scope: !467, file: !467, line: 313, type: !652, flags: DIFlagPrototyped, spFlags: 0)
!652 = !DISubroutineType(types: !653)
!653 = !{!34, !463}
!654 = !DIImportedEntity(tag: DW_TAG_imported_declaration, scope: !91, entity: !655, file: !461, line: 200)
!655 = !DISubprogram(name: "wmemcmp", scope: !467, file: !467, line: 283, type: !612, flags: DIFlagPrototyped, spFlags: 0)
!656 = !DIImportedEntity(tag: DW_TAG_imported_declaration, scope: !91, entity: !657, file: !461, line: 201)
!657 = !DISubprogram(name: "wmemcpy", scope: !467, file: !467, line: 287, type: !608, flags: DIFlagPrototyped, spFlags: 0)
!658 = !DIImportedEntity(tag: DW_TAG_imported_declaration, scope: !91, entity: !659, file: !461, line: 202)
!659 = !DISubprogram(name: "wmemmove", scope: !467, file: !467, line: 292, type: !660, flags: DIFlagPrototyped, spFlags: 0)
!660 = !DISubroutineType(types: !661)
!661 = !{!262, !262, !309, !189}
!662 = !DIImportedEntity(tag: DW_TAG_imported_declaration, scope: !91, entity: !663, file: !461, line: 203)
!663 = !DISubprogram(name: "wmemset", scope: !467, file: !467, line: 296, type: !664, flags: DIFlagPrototyped, spFlags: 0)
!664 = !DISubroutineType(types: !665)
!665 = !{!262, !262, !263, !189}
!666 = !DIImportedEntity(tag: DW_TAG_imported_declaration, scope: !91, entity: !667, file: !461, line: 204)
!667 = !DISubprogram(name: "wprintf", scope: !467, file: !467, line: 739, type: !668, flags: DIFlagPrototyped, spFlags: 0)
!668 = !DISubroutineType(types: !669)
!669 = !{!34, !308, null}
!670 = !DIImportedEntity(tag: DW_TAG_imported_declaration, scope: !91, entity: !671, file: !461, line: 205)
!671 = !DISubprogram(name: "wscanf", linkageName: "__isoc23_wscanf", scope: !467, file: !467, line: 799, type: !668, flags: DIFlagPrototyped, spFlags: 0)
!672 = !DIImportedEntity(tag: DW_TAG_imported_declaration, scope: !91, entity: !673, file: !461, line: 206)
!673 = !DISubprogram(name: "wcschr", scope: !467, file: !467, line: 189, type: !674, flags: DIFlagPrototyped, spFlags: 0)
!674 = !DISubroutineType(types: !675)
!675 = !{!262, !309, !263}
!676 = !DIImportedEntity(tag: DW_TAG_imported_declaration, scope: !91, entity: !677, file: !461, line: 207)
!677 = !DISubprogram(name: "wcspbrk", scope: !467, file: !467, line: 226, type: !678, flags: DIFlagPrototyped, spFlags: 0)
!678 = !DISubroutineType(types: !679)
!679 = !{!262, !309, !309}
!680 = !DIImportedEntity(tag: DW_TAG_imported_declaration, scope: !91, entity: !681, file: !461, line: 208)
!681 = !DISubprogram(name: "wcsrchr", scope: !467, file: !467, line: 199, type: !674, flags: DIFlagPrototyped, spFlags: 0)
!682 = !DIImportedEntity(tag: DW_TAG_imported_declaration, scope: !91, entity: !683, file: !461, line: 209)
!683 = !DISubprogram(name: "wcsstr", scope: !467, file: !467, line: 237, type: !678, flags: DIFlagPrototyped, spFlags: 0)
!684 = !DIImportedEntity(tag: DW_TAG_imported_declaration, scope: !91, entity: !685, file: !461, line: 210)
!685 = !DISubprogram(name: "wmemchr", scope: !467, file: !467, line: 278, type: !686, flags: DIFlagPrototyped, spFlags: 0)
!686 = !DISubroutineType(types: !687)
!687 = !{!262, !309, !263, !189}
!688 = !DIImportedEntity(tag: DW_TAG_imported_declaration, scope: !316, entity: !689, file: !461, line: 251)
!689 = !DISubprogram(name: "wcstold", scope: !467, file: !467, line: 409, type: !690, flags: DIFlagPrototyped, spFlags: 0)
!690 = !DISubroutineType(types: !691)
!691 = !{!355, !308, !628}
!692 = !DIImportedEntity(tag: DW_TAG_imported_declaration, scope: !316, entity: !693, file: !461, line: 260)
!693 = !DISubprogram(name: "wcstoll", linkageName: "__isoc23_wcstoll", scope: !467, file: !467, line: 508, type: !694, flags: DIFlagPrototyped, spFlags: 0)
!694 = !DISubroutineType(types: !695)
!695 = !{!321, !308, !628, !34}
!696 = !DIImportedEntity(tag: DW_TAG_imported_declaration, scope: !316, entity: !697, file: !461, line: 261)
!697 = !DISubprogram(name: "wcstoull", linkageName: "__isoc23_wcstoull", scope: !467, file: !467, line: 513, type: !698, flags: DIFlagPrototyped, spFlags: 0)
!698 = !DISubroutineType(types: !699)
!699 = !{!345, !308, !628, !34}
!700 = !DIImportedEntity(tag: DW_TAG_imported_declaration, scope: !91, entity: !689, file: !461, line: 267)
!701 = !DIImportedEntity(tag: DW_TAG_imported_declaration, scope: !91, entity: !693, file: !461, line: 268)
!702 = !DIImportedEntity(tag: DW_TAG_imported_declaration, scope: !91, entity: !697, file: !461, line: 269)
!703 = !DIImportedEntity(tag: DW_TAG_imported_declaration, scope: !91, entity: !631, file: !461, line: 283)
!704 = !DIImportedEntity(tag: DW_TAG_imported_declaration, scope: !91, entity: !559, file: !461, line: 286)
!705 = !DIImportedEntity(tag: DW_TAG_imported_declaration, scope: !91, entity: !565, file: !461, line: 289)
!706 = !DIImportedEntity(tag: DW_TAG_imported_declaration, scope: !91, entity: !573, file: !461, line: 292)
!707 = !DIImportedEntity(tag: DW_TAG_imported_declaration, scope: !91, entity: !689, file: !461, line: 296)
!708 = !DIImportedEntity(tag: DW_TAG_imported_declaration, scope: !91, entity: !693, file: !461, line: 297)
!709 = !DIImportedEntity(tag: DW_TAG_imported_declaration, scope: !91, entity: !697, file: !461, line: 298)
!710 = !DIImportedEntity(tag: DW_TAG_imported_declaration, scope: !91, entity: !711, file: !712, line: 66)
!711 = !DICompositeType(tag: DW_TAG_class_type, name: "exception_ptr", scope: !713, file: !712, line: 97, size: 64, flags: DIFlagFwdDecl | DIFlagNonTrivial, identifier: "_ZTSNSt15__exception_ptr13exception_ptrE")
!712 = !DIFile(filename: "/usr/bin/../lib/gcc/x86_64-linux-gnu/13/../../../../include/c++/13/bits/exception_ptr.h", directory: "", checksumkind: CSK_MD5, checksum: "314ad14748ccb9ff85c65d17ebb0828b")
!713 = !DINamespace(name: "__exception_ptr", scope: !91)
!714 = !DIImportedEntity(tag: DW_TAG_imported_declaration, scope: !713, entity: !715, file: !712, line: 85)
!715 = !DISubprogram(name: "rethrow_exception", linkageName: "_ZSt17rethrow_exceptionNSt15__exception_ptr13exception_ptrE", scope: !91, file: !712, line: 81, type: !716, flags: DIFlagPrototyped | DIFlagNoReturn, spFlags: 0)
!716 = !DISubroutineType(types: !717)
!717 = !{null, !711}
!718 = !DIImportedEntity(tag: DW_TAG_imported_declaration, scope: !91, entity: !719, file: !712, line: 243)
!719 = !DISubprogram(name: "swap", linkageName: "_ZNSt15__exception_ptr4swapERNS_13exception_ptrES1_", scope: !713, file: !712, line: 230, type: !720, flags: DIFlagPrototyped, spFlags: 0)
!720 = !DISubroutineType(types: !721)
!721 = !{null, !722, !722}
!722 = !DIDerivedType(tag: DW_TAG_reference_type, baseType: !711, size: 64)
!723 = !DIImportedEntity(tag: DW_TAG_imported_declaration, scope: !91, entity: !724, file: !726, line: 53)
!724 = !DICompositeType(tag: DW_TAG_structure_type, name: "lconv", file: !725, line: 51, size: 768, flags: DIFlagFwdDecl, identifier: "_ZTS5lconv")
!725 = !DIFile(filename: "/usr/include/locale.h", directory: "", checksumkind: CSK_MD5, checksum: "23ebf40dea0ab9a74daf64a0eaa99518")
!726 = !DIFile(filename: "/usr/bin/../lib/gcc/x86_64-linux-gnu/13/../../../../include/c++/13/clocale", directory: "")
!727 = !DIImportedEntity(tag: DW_TAG_imported_declaration, scope: !91, entity: !728, file: !726, line: 54)
!728 = !DISubprogram(name: "setlocale", scope: !725, file: !725, line: 122, type: !729, flags: DIFlagPrototyped, spFlags: 0)
!729 = !DISubroutineType(types: !730)
!730 = !{!240, !34, !203}
!731 = !DIImportedEntity(tag: DW_TAG_imported_declaration, scope: !91, entity: !732, file: !726, line: 55)
!732 = !DISubprogram(name: "localeconv", scope: !725, file: !725, line: 125, type: !733, flags: DIFlagPrototyped, spFlags: 0)
!733 = !DISubroutineType(types: !734)
!734 = !{!735}
!735 = !DIDerivedType(tag: DW_TAG_pointer_type, baseType: !724, size: 64)
!736 = !DIImportedEntity(tag: DW_TAG_imported_declaration, scope: !91, entity: !737, file: !739, line: 64)
!737 = !DISubprogram(name: "isalnum", scope: !738, file: !738, line: 108, type: !168, flags: DIFlagPrototyped, spFlags: 0)
!738 = !DIFile(filename: "/usr/include/ctype.h", directory: "", checksumkind: CSK_MD5, checksum: "43fd45dcf96e8fb7d8f14700096497c7")
!739 = !DIFile(filename: "/usr/bin/../lib/gcc/x86_64-linux-gnu/13/../../../../include/c++/13/cctype", directory: "")
!740 = !DIImportedEntity(tag: DW_TAG_imported_declaration, scope: !91, entity: !741, file: !739, line: 65)
!741 = !DISubprogram(name: "isalpha", scope: !738, file: !738, line: 109, type: !168, flags: DIFlagPrototyped, spFlags: 0)
!742 = !DIImportedEntity(tag: DW_TAG_imported_declaration, scope: !91, entity: !743, file: !739, line: 66)
!743 = !DISubprogram(name: "iscntrl", scope: !738, file: !738, line: 110, type: !168, flags: DIFlagPrototyped, spFlags: 0)
!744 = !DIImportedEntity(tag: DW_TAG_imported_declaration, scope: !91, entity: !745, file: !739, line: 67)
!745 = !DISubprogram(name: "isdigit", scope: !738, file: !738, line: 111, type: !168, flags: DIFlagPrototyped, spFlags: 0)
!746 = !DIImportedEntity(tag: DW_TAG_imported_declaration, scope: !91, entity: !747, file: !739, line: 68)
!747 = !DISubprogram(name: "isgraph", scope: !738, file: !738, line: 113, type: !168, flags: DIFlagPrototyped, spFlags: 0)
!748 = !DIImportedEntity(tag: DW_TAG_imported_declaration, scope: !91, entity: !749, file: !739, line: 69)
!749 = !DISubprogram(name: "islower", scope: !738, file: !738, line: 112, type: !168, flags: DIFlagPrototyped, spFlags: 0)
!750 = !DIImportedEntity(tag: DW_TAG_imported_declaration, scope: !91, entity: !751, file: !739, line: 70)
!751 = !DISubprogram(name: "isprint", scope: !738, file: !738, line: 114, type: !168, flags: DIFlagPrototyped, spFlags: 0)
!752 = !DIImportedEntity(tag: DW_TAG_imported_declaration, scope: !91, entity: !753, file: !739, line: 71)
!753 = !DISubprogram(name: "ispunct", scope: !738, file: !738, line: 115, type: !168, flags: DIFlagPrototyped, spFlags: 0)
!754 = !DIImportedEntity(tag: DW_TAG_imported_declaration, scope: !91, entity: !755, file: !739, line: 72)
!755 = !DISubprogram(name: "isspace", scope: !738, file: !738, line: 116, type: !168, flags: DIFlagPrototyped, spFlags: 0)
!756 = !DIImportedEntity(tag: DW_TAG_imported_declaration, scope: !91, entity: !757, file: !739, line: 73)
!757 = !DISubprogram(name: "isupper", scope: !738, file: !738, line: 117, type: !168, flags: DIFlagPrototyped, spFlags: 0)
!758 = !DIImportedEntity(tag: DW_TAG_imported_declaration, scope: !91, entity: !759, file: !739, line: 74)
!759 = !DISubprogram(name: "isxdigit", scope: !738, file: !738, line: 118, type: !168, flags: DIFlagPrototyped, spFlags: 0)
!760 = !DIImportedEntity(tag: DW_TAG_imported_declaration, scope: !91, entity: !761, file: !739, line: 75)
!761 = !DISubprogram(name: "tolower", scope: !738, file: !738, line: 122, type: !168, flags: DIFlagPrototyped, spFlags: 0)
!762 = !DIImportedEntity(tag: DW_TAG_imported_declaration, scope: !91, entity: !763, file: !739, line: 76)
!763 = !DISubprogram(name: "toupper", scope: !738, file: !738, line: 125, type: !168, flags: DIFlagPrototyped, spFlags: 0)
!764 = !DIImportedEntity(tag: DW_TAG_imported_declaration, scope: !91, entity: !765, file: !739, line: 87)
!765 = !DISubprogram(name: "isblank", scope: !738, file: !738, line: 130, type: !168, flags: DIFlagPrototyped, spFlags: 0)
!766 = !DIImportedEntity(tag: DW_TAG_imported_module, scope: !767, entity: !768, file: !769, line: 58)
!767 = !DINamespace(name: "__gnu_debug", scope: null)
!768 = !DINamespace(name: "__debug", scope: !91)
!769 = !DIFile(filename: "/usr/bin/../lib/gcc/x86_64-linux-gnu/13/../../../../include/c++/13/debug/debug.h", directory: "", checksumkind: CSK_MD5, checksum: "752210a319f5f5d356cc29cd1ce3cdc7")
!770 = !DIImportedEntity(tag: DW_TAG_imported_declaration, scope: !91, entity: !771, file: !773, line: 98)
!771 = !DIDerivedType(tag: DW_TAG_typedef, name: "FILE", file: !772, line: 7, baseType: !477)
!772 = !DIFile(filename: "/usr/include/x86_64-linux-gnu/bits/types/FILE.h", directory: "", checksumkind: CSK_MD5, checksum: "571f9fb6223c42439075fdde11a0de5d")
!773 = !DIFile(filename: "/usr/bin/../lib/gcc/x86_64-linux-gnu/13/../../../../include/c++/13/cstdio", directory: "")
!774 = !DIImportedEntity(tag: DW_TAG_imported_declaration, scope: !91, entity: !775, file: !773, line: 99)
!775 = !DIDerivedType(tag: DW_TAG_typedef, name: "fpos_t", file: !776, line: 85, baseType: !777)
!776 = !DIFile(filename: "/usr/include/stdio.h", directory: "", checksumkind: CSK_MD5, checksum: "1e435c46987a169d9f9186f63a512303")
!777 = !DIDerivedType(tag: DW_TAG_typedef, name: "__fpos_t", file: !778, line: 14, baseType: !779)
!778 = !DIFile(filename: "/usr/include/x86_64-linux-gnu/bits/types/__fpos_t.h", directory: "", checksumkind: CSK_MD5, checksum: "32de8bdaf3551a6c0a9394f9af4389ce")
!779 = !DICompositeType(tag: DW_TAG_structure_type, name: "_G_fpos_t", file: !778, line: 10, size: 128, flags: DIFlagFwdDecl, identifier: "_ZTS9_G_fpos_t")
!780 = !DIImportedEntity(tag: DW_TAG_imported_declaration, scope: !91, entity: !781, file: !773, line: 101)
!781 = !DISubprogram(name: "clearerr", scope: !776, file: !776, line: 860, type: !782, flags: DIFlagPrototyped, spFlags: 0)
!782 = !DISubroutineType(types: !783)
!783 = !{null, !784}
!784 = !DIDerivedType(tag: DW_TAG_pointer_type, baseType: !771, size: 64)
!785 = !DIImportedEntity(tag: DW_TAG_imported_declaration, scope: !91, entity: !786, file: !773, line: 102)
!786 = !DISubprogram(name: "fclose", scope: !776, file: !776, line: 184, type: !787, flags: DIFlagPrototyped, spFlags: 0)
!787 = !DISubroutineType(types: !788)
!788 = !{!34, !784}
!789 = !DIImportedEntity(tag: DW_TAG_imported_declaration, scope: !91, entity: !790, file: !773, line: 103)
!790 = !DISubprogram(name: "feof", scope: !776, file: !776, line: 862, type: !787, flags: DIFlagPrototyped, spFlags: 0)
!791 = !DIImportedEntity(tag: DW_TAG_imported_declaration, scope: !91, entity: !792, file: !773, line: 104)
!792 = !DISubprogram(name: "ferror", scope: !776, file: !776, line: 864, type: !787, flags: DIFlagPrototyped, spFlags: 0)
!793 = !DIImportedEntity(tag: DW_TAG_imported_declaration, scope: !91, entity: !794, file: !773, line: 105)
!794 = !DISubprogram(name: "fflush", scope: !776, file: !776, line: 236, type: !787, flags: DIFlagPrototyped, spFlags: 0)
!795 = !DIImportedEntity(tag: DW_TAG_imported_declaration, scope: !91, entity: !796, file: !773, line: 106)
!796 = !DISubprogram(name: "fgetc", scope: !776, file: !776, line: 575, type: !787, flags: DIFlagPrototyped, spFlags: 0)
!797 = !DIImportedEntity(tag: DW_TAG_imported_declaration, scope: !91, entity: !798, file: !773, line: 107)
!798 = !DISubprogram(name: "fgetpos", scope: !776, file: !776, line: 829, type: !799, flags: DIFlagPrototyped, spFlags: 0)
!799 = !DISubroutineType(types: !800)
!800 = !{!34, !801, !802}
!801 = !DIDerivedType(tag: DW_TAG_restrict_type, baseType: !784)
!802 = !DIDerivedType(tag: DW_TAG_restrict_type, baseType: !803)
!803 = !DIDerivedType(tag: DW_TAG_pointer_type, baseType: !775, size: 64)
!804 = !DIImportedEntity(tag: DW_TAG_imported_declaration, scope: !91, entity: !805, file: !773, line: 108)
!805 = !DISubprogram(name: "fgets", scope: !776, file: !776, line: 654, type: !806, flags: DIFlagPrototyped, spFlags: 0)
!806 = !DISubroutineType(types: !807)
!807 = !{!240, !307, !34, !801}
!808 = !DIImportedEntity(tag: DW_TAG_imported_declaration, scope: !91, entity: !809, file: !773, line: 109)
!809 = !DISubprogram(name: "fopen", scope: !776, file: !776, line: 264, type: !810, flags: DIFlagPrototyped, spFlags: 0)
!810 = !DISubroutineType(types: !811)
!811 = !{!784, !264, !264}
!812 = !DIImportedEntity(tag: DW_TAG_imported_declaration, scope: !91, entity: !813, file: !773, line: 110)
!813 = !DISubprogram(name: "fprintf", scope: !776, file: !776, line: 357, type: !814, flags: DIFlagPrototyped, spFlags: 0)
!814 = !DISubroutineType(types: !815)
!815 = !{!34, !801, !264, null}
!816 = !DIImportedEntity(tag: DW_TAG_imported_declaration, scope: !91, entity: !817, file: !773, line: 111)
!817 = !DISubprogram(name: "fputc", scope: !776, file: !776, line: 611, type: !818, flags: DIFlagPrototyped, spFlags: 0)
!818 = !DISubroutineType(types: !819)
!819 = !{!34, !34, !784}
!820 = !DIImportedEntity(tag: DW_TAG_imported_declaration, scope: !91, entity: !821, file: !773, line: 112)
!821 = !DISubprogram(name: "fputs", scope: !776, file: !776, line: 717, type: !822, flags: DIFlagPrototyped, spFlags: 0)
!822 = !DISubroutineType(types: !823)
!823 = !{!34, !264, !801}
!824 = !DIImportedEntity(tag: DW_TAG_imported_declaration, scope: !91, entity: !825, file: !773, line: 113)
!825 = !DISubprogram(name: "fread", scope: !776, file: !776, line: 738, type: !826, flags: DIFlagPrototyped, spFlags: 0)
!826 = !DISubroutineType(types: !827)
!827 = !{!189, !381, !189, !189, !801}
!828 = !DIImportedEntity(tag: DW_TAG_imported_declaration, scope: !91, entity: !829, file: !773, line: 114)
!829 = !DISubprogram(name: "freopen", scope: !776, file: !776, line: 271, type: !830, flags: DIFlagPrototyped, spFlags: 0)
!830 = !DISubroutineType(types: !831)
!831 = !{!784, !264, !264, !801}
!832 = !DIImportedEntity(tag: DW_TAG_imported_declaration, scope: !91, entity: !833, file: !773, line: 115)
!833 = !DISubprogram(name: "fscanf", linkageName: "__isoc23_fscanf", scope: !776, file: !776, line: 442, type: !814, flags: DIFlagPrototyped, spFlags: 0)
!834 = !DIImportedEntity(tag: DW_TAG_imported_declaration, scope: !91, entity: !835, file: !773, line: 116)
!835 = !DISubprogram(name: "fseek", scope: !776, file: !776, line: 779, type: !836, flags: DIFlagPrototyped, spFlags: 0)
!836 = !DISubroutineType(types: !837)
!837 = !{!34, !784, !56, !34}
!838 = !DIImportedEntity(tag: DW_TAG_imported_declaration, scope: !91, entity: !839, file: !773, line: 117)
!839 = !DISubprogram(name: "fsetpos", scope: !776, file: !776, line: 835, type: !840, flags: DIFlagPrototyped, spFlags: 0)
!840 = !DISubroutineType(types: !841)
!841 = !{!34, !784, !842}
!842 = !DIDerivedType(tag: DW_TAG_pointer_type, baseType: !843, size: 64)
!843 = !DIDerivedType(tag: DW_TAG_const_type, baseType: !775)
!844 = !DIImportedEntity(tag: DW_TAG_imported_declaration, scope: !91, entity: !845, file: !773, line: 118)
!845 = !DISubprogram(name: "ftell", scope: !776, file: !776, line: 785, type: !846, flags: DIFlagPrototyped, spFlags: 0)
!846 = !DISubroutineType(types: !847)
!847 = !{!56, !784}
!848 = !DIImportedEntity(tag: DW_TAG_imported_declaration, scope: !91, entity: !849, file: !773, line: 119)
!849 = !DISubprogram(name: "fwrite", scope: !776, file: !776, line: 745, type: !850, flags: DIFlagPrototyped, spFlags: 0)
!850 = !DISubroutineType(types: !851)
!851 = !{!189, !382, !189, !189, !801}
!852 = !DIImportedEntity(tag: DW_TAG_imported_declaration, scope: !91, entity: !853, file: !773, line: 120)
!853 = !DISubprogram(name: "getc", scope: !776, file: !776, line: 576, type: !787, flags: DIFlagPrototyped, spFlags: 0)
!854 = !DIImportedEntity(tag: DW_TAG_imported_declaration, scope: !91, entity: !855, file: !773, line: 121)
!855 = !DISubprogram(name: "getchar", scope: !776, file: !776, line: 582, type: !277, flags: DIFlagPrototyped, spFlags: 0)
!856 = !DIImportedEntity(tag: DW_TAG_imported_declaration, scope: !91, entity: !857, file: !773, line: 126)
!857 = !DISubprogram(name: "perror", scope: !776, file: !776, line: 878, type: !858, flags: DIFlagPrototyped, spFlags: 0)
!858 = !DISubroutineType(types: !859)
!859 = !{null, !203}
!860 = !DIImportedEntity(tag: DW_TAG_imported_declaration, scope: !91, entity: !861, file: !773, line: 127)
!861 = !DISubprogram(name: "printf", scope: !776, file: !776, line: 363, type: !862, flags: DIFlagPrototyped, spFlags: 0)
!862 = !DISubroutineType(types: !863)
!863 = !{!34, !264, null}
!864 = !DIImportedEntity(tag: DW_TAG_imported_declaration, scope: !91, entity: !865, file: !773, line: 128)
!865 = !DISubprogram(name: "putc", scope: !776, file: !776, line: 612, type: !818, flags: DIFlagPrototyped, spFlags: 0)
!866 = !DIImportedEntity(tag: DW_TAG_imported_declaration, scope: !91, entity: !867, file: !773, line: 129)
!867 = !DISubprogram(name: "putchar", scope: !776, file: !776, line: 618, type: !168, flags: DIFlagPrototyped, spFlags: 0)
!868 = !DIImportedEntity(tag: DW_TAG_imported_declaration, scope: !91, entity: !869, file: !773, line: 130)
!869 = !DISubprogram(name: "puts", scope: !776, file: !776, line: 724, type: !206, flags: DIFlagPrototyped, spFlags: 0)
!870 = !DIImportedEntity(tag: DW_TAG_imported_declaration, scope: !91, entity: !871, file: !773, line: 131)
!871 = !DISubprogram(name: "remove", scope: !776, file: !776, line: 158, type: !206, flags: DIFlagPrototyped, spFlags: 0)
!872 = !DIImportedEntity(tag: DW_TAG_imported_declaration, scope: !91, entity: !873, file: !773, line: 132)
!873 = !DISubprogram(name: "rename", scope: !776, file: !776, line: 160, type: !397, flags: DIFlagPrototyped, spFlags: 0)
!874 = !DIImportedEntity(tag: DW_TAG_imported_declaration, scope: !91, entity: !875, file: !773, line: 133)
!875 = !DISubprogram(name: "rewind", scope: !776, file: !776, line: 790, type: !782, flags: DIFlagPrototyped, spFlags: 0)
!876 = !DIImportedEntity(tag: DW_TAG_imported_declaration, scope: !91, entity: !877, file: !773, line: 134)
!877 = !DISubprogram(name: "scanf", linkageName: "__isoc23_scanf", scope: !776, file: !776, line: 445, type: !862, flags: DIFlagPrototyped, spFlags: 0)
!878 = !DIImportedEntity(tag: DW_TAG_imported_declaration, scope: !91, entity: !879, file: !773, line: 135)
!879 = !DISubprogram(name: "setbuf", scope: !776, file: !776, line: 334, type: !880, flags: DIFlagPrototyped, spFlags: 0)
!880 = !DISubroutineType(types: !881)
!881 = !{null, !801, !307}
!882 = !DIImportedEntity(tag: DW_TAG_imported_declaration, scope: !91, entity: !883, file: !773, line: 136)
!883 = !DISubprogram(name: "setvbuf", scope: !776, file: !776, line: 339, type: !884, flags: DIFlagPrototyped, spFlags: 0)
!884 = !DISubroutineType(types: !885)
!885 = !{!34, !801, !307, !34, !189}
!886 = !DIImportedEntity(tag: DW_TAG_imported_declaration, scope: !91, entity: !887, file: !773, line: 137)
!887 = !DISubprogram(name: "sprintf", scope: !776, file: !776, line: 365, type: !888, flags: DIFlagPrototyped, spFlags: 0)
!888 = !DISubroutineType(types: !889)
!889 = !{!34, !307, !264, null}
!890 = !DIImportedEntity(tag: DW_TAG_imported_declaration, scope: !91, entity: !891, file: !773, line: 138)
!891 = !DISubprogram(name: "sscanf", linkageName: "__isoc23_sscanf", scope: !776, file: !776, line: 447, type: !892, flags: DIFlagPrototyped, spFlags: 0)
!892 = !DISubroutineType(types: !893)
!893 = !{!34, !264, !264, null}
!894 = !DIImportedEntity(tag: DW_TAG_imported_declaration, scope: !91, entity: !895, file: !773, line: 139)
!895 = !DISubprogram(name: "tmpfile", scope: !776, file: !776, line: 194, type: !896, flags: DIFlagPrototyped, spFlags: 0)
!896 = !DISubroutineType(types: !897)
!897 = !{!784}
!898 = !DIImportedEntity(tag: DW_TAG_imported_declaration, scope: !91, entity: !899, file: !773, line: 141)
!899 = !DISubprogram(name: "tmpnam", scope: !776, file: !776, line: 211, type: !900, flags: DIFlagPrototyped, spFlags: 0)
!900 = !DISubroutineType(types: !901)
!901 = !{!240, !240}
!902 = !DIImportedEntity(tag: DW_TAG_imported_declaration, scope: !91, entity: !903, file: !773, line: 143)
!903 = !DISubprogram(name: "ungetc", scope: !776, file: !776, line: 731, type: !818, flags: DIFlagPrototyped, spFlags: 0)
!904 = !DIImportedEntity(tag: DW_TAG_imported_declaration, scope: !91, entity: !905, file: !773, line: 144)
!905 = !DISubprogram(name: "vfprintf", scope: !776, file: !776, line: 372, type: !906, flags: DIFlagPrototyped, spFlags: 0)
!906 = !DISubroutineType(types: !907)
!907 = !{!34, !801, !264, !551}
!908 = !DIImportedEntity(tag: DW_TAG_imported_declaration, scope: !91, entity: !909, file: !773, line: 145)
!909 = !DISubprogram(name: "vprintf", scope: !776, file: !776, line: 378, type: !910, flags: DIFlagPrototyped, spFlags: 0)
!910 = !DISubroutineType(types: !911)
!911 = !{!34, !264, !551}
!912 = !DIImportedEntity(tag: DW_TAG_imported_declaration, scope: !91, entity: !913, file: !773, line: 146)
!913 = !DISubprogram(name: "vsprintf", scope: !776, file: !776, line: 380, type: !914, flags: DIFlagPrototyped, spFlags: 0)
!914 = !DISubroutineType(types: !915)
!915 = !{!34, !307, !264, !551}
!916 = !DIImportedEntity(tag: DW_TAG_imported_declaration, scope: !316, entity: !917, file: !773, line: 175)
!917 = !DISubprogram(name: "snprintf", scope: !776, file: !776, line: 385, type: !918, flags: DIFlagPrototyped, spFlags: 0)
!918 = !DISubroutineType(types: !919)
!919 = !{!34, !307, !189, !264, null}
!920 = !DIImportedEntity(tag: DW_TAG_imported_declaration, scope: !316, entity: !921, file: !773, line: 176)
!921 = !DISubprogram(name: "vfscanf", linkageName: "__isoc23_vfscanf", scope: !776, file: !776, line: 511, type: !906, flags: DIFlagPrototyped, spFlags: 0)
!922 = !DIImportedEntity(tag: DW_TAG_imported_declaration, scope: !316, entity: !923, file: !773, line: 177)
!923 = !DISubprogram(name: "vscanf", linkageName: "__isoc23_vscanf", scope: !776, file: !776, line: 516, type: !910, flags: DIFlagPrototyped, spFlags: 0)
!924 = !DIImportedEntity(tag: DW_TAG_imported_declaration, scope: !316, entity: !925, file: !773, line: 178)
!925 = !DISubprogram(name: "vsnprintf", scope: !776, file: !776, line: 389, type: !926, flags: DIFlagPrototyped, spFlags: 0)
!926 = !DISubroutineType(types: !927)
!927 = !{!34, !307, !189, !264, !551}
!928 = !DIImportedEntity(tag: DW_TAG_imported_declaration, scope: !316, entity: !929, file: !773, line: 179)
!929 = !DISubprogram(name: "vsscanf", linkageName: "__isoc23_vsscanf", scope: !776, file: !776, line: 519, type: !930, flags: DIFlagPrototyped, spFlags: 0)
!930 = !DISubroutineType(types: !931)
!931 = !{!34, !264, !264, !551}
!932 = !DIImportedEntity(tag: DW_TAG_imported_declaration, scope: !91, entity: !917, file: !773, line: 185)
!933 = !DIImportedEntity(tag: DW_TAG_imported_declaration, scope: !91, entity: !921, file: !773, line: 186)
!934 = !DIImportedEntity(tag: DW_TAG_imported_declaration, scope: !91, entity: !923, file: !773, line: 187)
!935 = !DIImportedEntity(tag: DW_TAG_imported_declaration, scope: !91, entity: !925, file: !773, line: 188)
!936 = !DIImportedEntity(tag: DW_TAG_imported_declaration, scope: !91, entity: !929, file: !773, line: 189)
!937 = !DIImportedEntity(tag: DW_TAG_imported_declaration, scope: !91, entity: !938, file: !944, line: 58)
!938 = !DIDerivedType(tag: DW_TAG_typedef, name: "max_align_t", file: !939, line: 24, baseType: !940)
!939 = !DIFile(filename: "/usr/lib/llvm-18/lib/clang/18/include/__stddef_max_align_t.h", directory: "", checksumkind: CSK_MD5, checksum: "3c0a2f19d136d39aa835c737c7105def")
!940 = distinct !DICompositeType(tag: DW_TAG_structure_type, file: !939, line: 19, size: 256, flags: DIFlagTypePassByValue, elements: !941, identifier: "_ZTS11max_align_t")
!941 = !{!942, !943}
!942 = !DIDerivedType(tag: DW_TAG_member, name: "__clang_max_align_nonce1", scope: !940, file: !939, line: 20, baseType: !321, size: 64, align: 64)
!943 = !DIDerivedType(tag: DW_TAG_member, name: "__clang_max_align_nonce2", scope: !940, file: !939, line: 22, baseType: !355, size: 128, align: 128, offset: 128)
!944 = !DIFile(filename: "/usr/bin/../lib/gcc/x86_64-linux-gnu/13/../../../../include/c++/13/cstddef", directory: "")
!945 = !DIImportedEntity(tag: DW_TAG_imported_declaration, scope: !91, entity: !946, file: !950, line: 82)
!946 = !DIDerivedType(tag: DW_TAG_typedef, name: "wctrans_t", file: !947, line: 48, baseType: !948)
!947 = !DIFile(filename: "/usr/include/wctype.h", directory: "", checksumkind: CSK_MD5, checksum: "eff95da6508e8f67a3c7b77d9d8ab229")
!948 = !DIDerivedType(tag: DW_TAG_pointer_type, baseType: !949, size: 64)
!949 = !DIDerivedType(tag: DW_TAG_const_type, baseType: !102)
!950 = !DIFile(filename: "/usr/bin/../lib/gcc/x86_64-linux-gnu/13/../../../../include/c++/13/cwctype", directory: "")
!951 = !DIImportedEntity(tag: DW_TAG_imported_declaration, scope: !91, entity: !952, file: !950, line: 83)
!952 = !DIDerivedType(tag: DW_TAG_typedef, name: "wctype_t", file: !953, line: 38, baseType: !62)
!953 = !DIFile(filename: "/usr/include/x86_64-linux-gnu/bits/wctype-wchar.h", directory: "", checksumkind: CSK_MD5, checksum: "7f19501745f9a1fbbace8f0f185de59a")
!954 = !DIImportedEntity(tag: DW_TAG_imported_declaration, scope: !91, entity: !463, file: !950, line: 84)
!955 = !DIImportedEntity(tag: DW_TAG_imported_declaration, scope: !91, entity: !956, file: !950, line: 86)
!956 = !DISubprogram(name: "iswalnum", scope: !953, file: !953, line: 95, type: !652, flags: DIFlagPrototyped, spFlags: 0)
!957 = !DIImportedEntity(tag: DW_TAG_imported_declaration, scope: !91, entity: !958, file: !950, line: 87)
!958 = !DISubprogram(name: "iswalpha", scope: !953, file: !953, line: 101, type: !652, flags: DIFlagPrototyped, spFlags: 0)
!959 = !DIImportedEntity(tag: DW_TAG_imported_declaration, scope: !91, entity: !960, file: !950, line: 89)
!960 = !DISubprogram(name: "iswblank", scope: !953, file: !953, line: 146, type: !652, flags: DIFlagPrototyped, spFlags: 0)
!961 = !DIImportedEntity(tag: DW_TAG_imported_declaration, scope: !91, entity: !962, file: !950, line: 91)
!962 = !DISubprogram(name: "iswcntrl", scope: !953, file: !953, line: 104, type: !652, flags: DIFlagPrototyped, spFlags: 0)
!963 = !DIImportedEntity(tag: DW_TAG_imported_declaration, scope: !91, entity: !964, file: !950, line: 92)
!964 = !DISubprogram(name: "iswctype", scope: !953, file: !953, line: 159, type: !965, flags: DIFlagPrototyped, spFlags: 0)
!965 = !DISubroutineType(types: !966)
!966 = !{!34, !463, !952}
!967 = !DIImportedEntity(tag: DW_TAG_imported_declaration, scope: !91, entity: !968, file: !950, line: 93)
!968 = !DISubprogram(name: "iswdigit", scope: !953, file: !953, line: 108, type: !652, flags: DIFlagPrototyped, spFlags: 0)
!969 = !DIImportedEntity(tag: DW_TAG_imported_declaration, scope: !91, entity: !970, file: !950, line: 94)
!970 = !DISubprogram(name: "iswgraph", scope: !953, file: !953, line: 112, type: !652, flags: DIFlagPrototyped, spFlags: 0)
!971 = !DIImportedEntity(tag: DW_TAG_imported_declaration, scope: !91, entity: !972, file: !950, line: 95)
!972 = !DISubprogram(name: "iswlower", scope: !953, file: !953, line: 117, type: !652, flags: DIFlagPrototyped, spFlags: 0)
!973 = !DIImportedEntity(tag: DW_TAG_imported_declaration, scope: !91, entity: !974, file: !950, line: 96)
!974 = !DISubprogram(name: "iswprint", scope: !953, file: !953, line: 120, type: !652, flags: DIFlagPrototyped, spFlags: 0)
!975 = !DIImportedEntity(tag: DW_TAG_imported_declaration, scope: !91, entity: !976, file: !950, line: 97)
!976 = !DISubprogram(name: "iswpunct", scope: !953, file: !953, line: 125, type: !652, flags: DIFlagPrototyped, spFlags: 0)
!977 = !DIImportedEntity(tag: DW_TAG_imported_declaration, scope: !91, entity: !978, file: !950, line: 98)
!978 = !DISubprogram(name: "iswspace", scope: !953, file: !953, line: 130, type: !652, flags: DIFlagPrototyped, spFlags: 0)
!979 = !DIImportedEntity(tag: DW_TAG_imported_declaration, scope: !91, entity: !980, file: !950, line: 99)
!980 = !DISubprogram(name: "iswupper", scope: !953, file: !953, line: 135, type: !652, flags: DIFlagPrototyped, spFlags: 0)
!981 = !DIImportedEntity(tag: DW_TAG_imported_declaration, scope: !91, entity: !982, file: !950, line: 100)
!982 = !DISubprogram(name: "iswxdigit", scope: !953, file: !953, line: 140, type: !652, flags: DIFlagPrototyped, spFlags: 0)
!983 = !DIImportedEntity(tag: DW_TAG_imported_declaration, scope: !91, entity: !984, file: !950, line: 101)
!984 = !DISubprogram(name: "towctrans", scope: !947, file: !947, line: 55, type: !985, flags: DIFlagPrototyped, spFlags: 0)
!985 = !DISubroutineType(types: !986)
!986 = !{!463, !463, !946}
!987 = !DIImportedEntity(tag: DW_TAG_imported_declaration, scope: !91, entity: !988, file: !950, line: 102)
!988 = !DISubprogram(name: "towlower", scope: !953, file: !953, line: 166, type: !989, flags: DIFlagPrototyped, spFlags: 0)
!989 = !DISubroutineType(types: !990)
!990 = !{!463, !463}
!991 = !DIImportedEntity(tag: DW_TAG_imported_declaration, scope: !91, entity: !992, file: !950, line: 103)
!992 = !DISubprogram(name: "towupper", scope: !953, file: !953, line: 169, type: !989, flags: DIFlagPrototyped, spFlags: 0)
!993 = !DIImportedEntity(tag: DW_TAG_imported_declaration, scope: !91, entity: !994, file: !950, line: 104)
!994 = !DISubprogram(name: "wctrans", scope: !947, file: !947, line: 52, type: !995, flags: DIFlagPrototyped, spFlags: 0)
!995 = !DISubroutineType(types: !996)
!996 = !{!946, !203}
!997 = !DIImportedEntity(tag: DW_TAG_imported_declaration, scope: !91, entity: !998, file: !950, line: 105)
!998 = !DISubprogram(name: "wctype", scope: !953, file: !953, line: 155, type: !999, flags: DIFlagPrototyped, spFlags: 0)
!999 = !DISubroutineType(types: !1000)
!1000 = !{!952, !203}
!1001 = !DIImportedEntity(tag: DW_TAG_imported_declaration, scope: !91, entity: !1002, file: !1005, line: 60)
!1002 = !DIDerivedType(tag: DW_TAG_typedef, name: "clock_t", file: !1003, line: 7, baseType: !1004)
!1003 = !DIFile(filename: "/usr/include/x86_64-linux-gnu/bits/types/clock_t.h", directory: "", checksumkind: CSK_MD5, checksum: "1aade99fd778d1551600c7ca1410b9f1")
!1004 = !DIDerivedType(tag: DW_TAG_typedef, name: "__clock_t", file: !19, line: 156, baseType: !56)
!1005 = !DIFile(filename: "/usr/bin/../lib/gcc/x86_64-linux-gnu/13/../../../../include/c++/13/ctime", directory: "")
!1006 = !DIImportedEntity(tag: DW_TAG_imported_declaration, scope: !91, entity: !1007, file: !1005, line: 61)
!1007 = !DIDerivedType(tag: DW_TAG_typedef, name: "time_t", file: !1008, line: 10, baseType: !1009)
!1008 = !DIFile(filename: "/usr/include/x86_64-linux-gnu/bits/types/time_t.h", directory: "", checksumkind: CSK_MD5, checksum: "5c299a4954617c88bb03645c7864e1b1")
!1009 = !DIDerivedType(tag: DW_TAG_typedef, name: "__time_t", file: !19, line: 160, baseType: !56)
!1010 = !DIImportedEntity(tag: DW_TAG_imported_declaration, scope: !91, entity: !601, file: !1005, line: 62)
!1011 = !DIImportedEntity(tag: DW_TAG_imported_declaration, scope: !91, entity: !1012, file: !1005, line: 64)
!1012 = !DISubprogram(name: "clock", scope: !1013, file: !1013, line: 72, type: !1014, flags: DIFlagPrototyped, spFlags: 0)
!1013 = !DIFile(filename: "/usr/include/time.h", directory: "", checksumkind: CSK_MD5, checksum: "0f2fb4d8bdeb2539d9a74dd8d835207f")
!1014 = !DISubroutineType(types: !1015)
!1015 = !{!1002}
!1016 = !DIImportedEntity(tag: DW_TAG_imported_declaration, scope: !91, entity: !1017, file: !1005, line: 65)
!1017 = !DISubprogram(name: "difftime", scope: !1013, file: !1013, line: 79, type: !1018, flags: DIFlagPrototyped, spFlags: 0)
!1018 = !DISubroutineType(types: !1019)
!1019 = !{!202, !1007, !1007}
!1020 = !DIImportedEntity(tag: DW_TAG_imported_declaration, scope: !91, entity: !1021, file: !1005, line: 66)
!1021 = !DISubprogram(name: "mktime", scope: !1013, file: !1013, line: 83, type: !1022, flags: DIFlagPrototyped, spFlags: 0)
!1022 = !DISubroutineType(types: !1023)
!1023 = !{!1007, !1024}
!1024 = !DIDerivedType(tag: DW_TAG_pointer_type, baseType: !601, size: 64)
!1025 = !DIImportedEntity(tag: DW_TAG_imported_declaration, scope: !91, entity: !1026, file: !1005, line: 67)
!1026 = !DISubprogram(name: "time", scope: !1013, file: !1013, line: 76, type: !1027, flags: DIFlagPrototyped, spFlags: 0)
!1027 = !DISubroutineType(types: !1028)
!1028 = !{!1007, !1029}
!1029 = !DIDerivedType(tag: DW_TAG_pointer_type, baseType: !1007, size: 64)
!1030 = !DIImportedEntity(tag: DW_TAG_imported_declaration, scope: !91, entity: !1031, file: !1005, line: 68)
!1031 = !DISubprogram(name: "asctime", scope: !1013, file: !1013, line: 180, type: !1032, flags: DIFlagPrototyped, spFlags: 0)
!1032 = !DISubroutineType(types: !1033)
!1033 = !{!240, !599}
!1034 = !DIImportedEntity(tag: DW_TAG_imported_declaration, scope: !91, entity: !1035, file: !1005, line: 69)
!1035 = !DISubprogram(name: "ctime", scope: !1013, file: !1013, line: 184, type: !1036, flags: DIFlagPrototyped, spFlags: 0)
!1036 = !DISubroutineType(types: !1037)
!1037 = !{!240, !1038}
!1038 = !DIDerivedType(tag: DW_TAG_pointer_type, baseType: !1039, size: 64)
!1039 = !DIDerivedType(tag: DW_TAG_const_type, baseType: !1007)
!1040 = !DIImportedEntity(tag: DW_TAG_imported_declaration, scope: !91, entity: !1041, file: !1005, line: 70)
!1041 = !DISubprogram(name: "gmtime", scope: !1013, file: !1013, line: 133, type: !1042, flags: DIFlagPrototyped, spFlags: 0)
!1042 = !DISubroutineType(types: !1043)
!1043 = !{!1024, !1038}
!1044 = !DIImportedEntity(tag: DW_TAG_imported_declaration, scope: !91, entity: !1045, file: !1005, line: 71)
!1045 = !DISubprogram(name: "localtime", scope: !1013, file: !1013, line: 137, type: !1042, flags: DIFlagPrototyped, spFlags: 0)
!1046 = !DIImportedEntity(tag: DW_TAG_imported_declaration, scope: !91, entity: !1047, file: !1005, line: 72)
!1047 = !DISubprogram(name: "strftime", scope: !1013, file: !1013, line: 100, type: !1048, flags: DIFlagPrototyped, spFlags: 0)
!1048 = !DISubroutineType(types: !1049)
!1049 = !{!189, !307, !189, !264, !598}
!1050 = !DIImportedEntity(tag: DW_TAG_imported_declaration, scope: !91, entity: !1051, file: !1005, line: 79)
!1051 = distinct !DICompositeType(tag: DW_TAG_structure_type, name: "timespec", file: !1052, line: 11, size: 128, flags: DIFlagTypePassByValue, elements: !1053, identifier: "_ZTS8timespec")
!1052 = !DIFile(filename: "/usr/include/x86_64-linux-gnu/bits/types/struct_timespec.h", directory: "", checksumkind: CSK_MD5, checksum: "55dc154df3f21a5aa944dcafba9b43f6")
!1053 = !{!1054, !1055}
!1054 = !DIDerivedType(tag: DW_TAG_member, name: "tv_sec", scope: !1051, file: !1052, line: 16, baseType: !1009, size: 64)
!1055 = !DIDerivedType(tag: DW_TAG_member, name: "tv_nsec", scope: !1051, file: !1052, line: 21, baseType: !1056, size: 64, offset: 64)
!1056 = !DIDerivedType(tag: DW_TAG_typedef, name: "__syscall_slong_t", file: !19, line: 197, baseType: !56)
!1057 = !DIImportedEntity(tag: DW_TAG_imported_declaration, scope: !91, entity: !1058, file: !1005, line: 80)
!1058 = !DISubprogram(name: "timespec_get", scope: !1013, file: !1013, line: 384, type: !1059, flags: DIFlagPrototyped, spFlags: 0)
!1059 = !DISubroutineType(types: !1060)
!1060 = !{!34, !1061, !34}
!1061 = !DIDerivedType(tag: DW_TAG_pointer_type, baseType: !1051, size: 64)
!1062 = !DIImportedEntity(tag: DW_TAG_imported_module, scope: !1063, entity: !1064, file: !1066, line: 1438)
!1063 = !DINamespace(name: "chrono", scope: !91)
!1064 = !DINamespace(name: "chrono_literals", scope: !1065, exportSymbols: true)
!1065 = !DINamespace(name: "literals", scope: !91, exportSymbols: true)
!1066 = !DIFile(filename: "/usr/bin/../lib/gcc/x86_64-linux-gnu/13/../../../../include/c++/13/bits/chrono.h", directory: "")
!1067 = !DIImportedEntity(tag: DW_TAG_imported_declaration, scope: !2, entity: !1068, file: !3, line: 10)
!1068 = !DIGlobalVariable(name: "cout", linkageName: "_ZSt4cout", scope: !91, file: !1069, line: 63, type: !1070, isLocal: false, isDefinition: false)
!1069 = !DIFile(filename: "/usr/bin/../lib/gcc/x86_64-linux-gnu/13/../../../../include/c++/13/iostream", directory: "")
!1070 = !DIDerivedType(tag: DW_TAG_typedef, name: "ostream", scope: !91, file: !1071, line: 143, baseType: !1072)
!1071 = !DIFile(filename: "/usr/bin/../lib/gcc/x86_64-linux-gnu/13/../../../../include/c++/13/iosfwd", directory: "")
!1072 = !DICompositeType(tag: DW_TAG_class_type, name: "basic_ostream<char, std::char_traits<char> >", scope: !91, file: !1073, line: 345, size: 2176, flags: DIFlagFwdDecl | DIFlagNonTrivial)
!1073 = !DIFile(filename: "/usr/bin/../lib/gcc/x86_64-linux-gnu/13/../../../../include/c++/13/bits/ostream.tcc", directory: "")
!1074 = !{i32 7, !"Dwarf Version", i32 5}
!1075 = !{i32 2, !"Debug Info Version", i32 3}
!1076 = !{i32 1, !"wchar_size", i32 4}
!1077 = !{i32 8, !"PIC Level", i32 2}
!1078 = !{i32 7, !"PIE Level", i32 2}
!1079 = !{i32 7, !"uwtable", i32 2}
!1080 = !{i32 7, !"frame-pointer", i32 2}
!1081 = !{!"Ubuntu clang version 18.1.8 (++20240731025043+3b5b5c1ec4a3-1~exp1~20240731145144.92)"}
!1082 = distinct !DISubprogram(name: "thrBody", linkageName: "_Z7thrBodyPv", scope: !3, file: !3, line: 23, type: !1083, scopeLine: 24, flags: DIFlagPrototyped, spFlags: DISPFlagDefinition, unit: !2, retainedNodes: !1085)
!1083 = !DISubroutineType(types: !1084)
!1084 = !{!21, !21}
!1085 = !{}
!1086 = !DILocalVariable(name: "arguments", arg: 1, scope: !1082, file: !3, line: 23, type: !21)
!1087 = !DILocation(line: 23, column: 21, scope: !1082)
!1088 = !DILocalVariable(name: "tmp", scope: !1082, file: !3, line: 25, type: !1089)
!1089 = !DIDerivedType(tag: DW_TAG_pointer_type, baseType: !1090, size: 64)
!1090 = !DIDerivedType(tag: DW_TAG_const_type, baseType: !13)
!1091 = !DILocation(line: 25, column: 28, scope: !1082)
!1092 = !DILocation(line: 25, column: 65, scope: !1082)
!1093 = !DILocalVariable(name: "i", scope: !1094, file: !3, line: 26, type: !60)
!1094 = distinct !DILexicalBlock(scope: !1082, file: !3, line: 26, column: 5)
!1095 = !DILocation(line: 26, column: 19, scope: !1094)
!1096 = !DILocation(line: 26, column: 10, scope: !1094)
!1097 = !DILocation(line: 26, column: 26, scope: !1098)
!1098 = distinct !DILexicalBlock(scope: !1094, file: !3, line: 26, column: 5)
!1099 = !DILocation(line: 26, column: 28, scope: !1098)
!1100 = !DILocation(line: 26, column: 5, scope: !1094)
!1101 = !DILocation(line: 28, column: 9, scope: !1102)
!1102 = distinct !DILexicalBlock(scope: !1098, file: !3, line: 27, column: 5)
!1103 = !DILocation(line: 29, column: 9, scope: !1102)
!1104 = !DILocation(line: 30, column: 9, scope: !1102)
!1105 = !DILocation(line: 31, column: 5, scope: !1102)
!1106 = !DILocation(line: 26, column: 37, scope: !1098)
!1107 = !DILocation(line: 26, column: 5, scope: !1098)
!1108 = distinct !{!1108, !1100, !1109, !1110}
!1109 = !DILocation(line: 31, column: 5, scope: !1094)
!1110 = !{!"llvm.loop.mustprogress"}
!1111 = !DILocation(line: 32, column: 5, scope: !1082)
!1112 = distinct !DISubprogram(name: "main", scope: !3, file: !3, line: 35, type: !277, scopeLine: 36, flags: DIFlagPrototyped, spFlags: DISPFlagDefinition, unit: !2, retainedNodes: !1085)
!1113 = !DILocalVariable(name: "error", scope: !1112, file: !3, line: 37, type: !34)
!1114 = !DILocation(line: 37, column: 9, scope: !1112)
!1115 = !DILocalVariable(name: "tid", scope: !1112, file: !3, line: 38, type: !1116)
!1116 = !DICompositeType(tag: DW_TAG_array_type, baseType: !1117, size: 128, elements: !87)
!1117 = !DIDerivedType(tag: DW_TAG_typedef, name: "pthread_t", file: !26, line: 27, baseType: !62)
!1118 = !DILocation(line: 38, column: 15, scope: !1112)
!1119 = !DILocalVariable(name: "status", scope: !1112, file: !3, line: 39, type: !21)
!1120 = !DILocation(line: 39, column: 11, scope: !1112)
!1121 = !DILocalVariable(name: "attr", scope: !1112, file: !3, line: 41, type: !1122)
!1122 = !DIDerivedType(tag: DW_TAG_typedef, name: "pthread_attr_t", file: !26, line: 62, baseType: !1123)
!1123 = distinct !DICompositeType(tag: DW_TAG_union_type, name: "pthread_attr_t", file: !26, line: 56, size: 448, flags: DIFlagTypePassByValue, elements: !1124, identifier: "_ZTS14pthread_attr_t")
!1124 = !{!1125, !1129}
!1125 = !DIDerivedType(tag: DW_TAG_member, name: "__size", scope: !1123, file: !26, line: 58, baseType: !1126, size: 448)
!1126 = !DICompositeType(tag: DW_TAG_array_type, baseType: !52, size: 448, elements: !1127)
!1127 = !{!1128}
!1128 = !DISubrange(count: 56)
!1129 = !DIDerivedType(tag: DW_TAG_member, name: "__align", scope: !1123, file: !26, line: 59, baseType: !56, size: 64)
!1130 = !DILocation(line: 41, column: 20, scope: !1112)
!1131 = !DILocation(line: 42, column: 5, scope: !1112)
!1132 = !DILocation(line: 43, column: 5, scope: !1112)
!1133 = !DILocalVariable(name: "args", scope: !1112, file: !3, line: 45, type: !1134)
!1134 = !DICompositeType(tag: DW_TAG_array_type, baseType: !13, size: 32, elements: !87)
!1135 = !DILocation(line: 45, column: 21, scope: !1112)
!1136 = !DILocalVariable(name: "i", scope: !1112, file: !3, line: 47, type: !66)
!1137 = !DILocation(line: 47, column: 14, scope: !1112)
!1138 = !DILocation(line: 48, column: 5, scope: !1112)
!1139 = !DILocation(line: 48, column: 12, scope: !1112)
!1140 = !DILocation(line: 48, column: 14, scope: !1112)
!1141 = !DILocation(line: 50, column: 22, scope: !1142)
!1142 = distinct !DILexicalBlock(scope: !1112, file: !3, line: 49, column: 5)
!1143 = !DILocation(line: 50, column: 14, scope: !1142)
!1144 = !DILocation(line: 50, column: 9, scope: !1142)
!1145 = !DILocation(line: 50, column: 17, scope: !1142)
!1146 = !DILocation(line: 50, column: 20, scope: !1142)
!1147 = !DILocation(line: 52, column: 33, scope: !1142)
!1148 = !DILocation(line: 52, column: 29, scope: !1142)
!1149 = !DILocation(line: 52, column: 73, scope: !1142)
!1150 = !DILocation(line: 52, column: 80, scope: !1142)
!1151 = !DILocation(line: 52, column: 78, scope: !1142)
!1152 = !DILocation(line: 52, column: 13, scope: !1142)
!1153 = !DILocation(line: 51, column: 15, scope: !1142)
!1154 = !DILocation(line: 53, column: 13, scope: !1155)
!1155 = distinct !DILexicalBlock(scope: !1142, file: !3, line: 53, column: 13)
!1156 = !DILocation(line: 53, column: 19, scope: !1155)
!1157 = !DILocation(line: 53, column: 13, scope: !1142)
!1158 = !DILocation(line: 55, column: 65, scope: !1159)
!1159 = distinct !DILexicalBlock(scope: !1155, file: !3, line: 54, column: 9)
!1160 = !DILocation(line: 55, column: 56, scope: !1159)
!1161 = !DILocation(line: 55, column: 13, scope: !1159)
!1162 = !DILocation(line: 56, column: 13, scope: !1159)
!1163 = !DILocation(line: 58, column: 10, scope: !1142)
!1164 = distinct !{!1164, !1138, !1165, !1110}
!1165 = !DILocation(line: 59, column: 5, scope: !1112)
!1166 = !DILocation(line: 60, column: 5, scope: !1112)
!1167 = !DILocation(line: 62, column: 7, scope: !1112)
!1168 = !DILocation(line: 63, column: 5, scope: !1112)
!1169 = !DILocation(line: 63, column: 12, scope: !1112)
!1170 = !DILocation(line: 63, column: 14, scope: !1112)
!1171 = !DILocation(line: 65, column: 34, scope: !1172)
!1172 = distinct !DILexicalBlock(scope: !1112, file: !3, line: 64, column: 5)
!1173 = !DILocation(line: 65, column: 30, scope: !1172)
!1174 = !DILocation(line: 65, column: 17, scope: !1172)
!1175 = !DILocation(line: 65, column: 15, scope: !1172)
!1176 = !DILocation(line: 66, column: 13, scope: !1177)
!1177 = distinct !DILexicalBlock(scope: !1172, file: !3, line: 66, column: 13)
!1178 = !DILocation(line: 66, column: 13, scope: !1172)
!1179 = !DILocation(line: 68, column: 70, scope: !1180)
!1180 = distinct !DILexicalBlock(scope: !1177, file: !3, line: 67, column: 9)
!1181 = !DILocation(line: 68, column: 13, scope: !1180)
!1182 = !DILocation(line: 69, column: 13, scope: !1180)
!1183 = !DILocation(line: 71, column: 10, scope: !1172)
!1184 = distinct !{!1184, !1168, !1185, !1110}
!1185 = !DILocation(line: 72, column: 5, scope: !1112)
!1186 = !DILocation(line: 74, column: 10, scope: !1112)
!1187 = !DILocation(line: 74, column: 34, scope: !1112)
!1188 = !DILocation(line: 74, column: 31, scope: !1112)
!1189 = !DILocation(line: 74, column: 42, scope: !1112)
!1190 = !DILocation(line: 76, column: 5, scope: !1112)
